ARM GAS  C:\Users\Oliver\AppData\Local\Temp\ccdKDjJp.s 			page 1


   1              		.cpu cortex-m7
   2              		.arch armv7e-m
   3              		.fpu fpv5-d16
   4              		.eabi_attribute 28, 1
   5              		.eabi_attribute 20, 1
   6              		.eabi_attribute 21, 1
   7              		.eabi_attribute 23, 3
   8              		.eabi_attribute 24, 1
   9              		.eabi_attribute 25, 1
  10              		.eabi_attribute 26, 1
  11              		.eabi_attribute 30, 4
  12              		.eabi_attribute 34, 1
  13              		.eabi_attribute 18, 4
  14              		.file	"cDisplay.cpp"
  15              		.text
  16              	.Ltext0:
  17              		.cfi_sections	.debug_frame
  18              		.file 1 "dependencies/DaisySeedGFX2/cDisplay.cpp"
  19              		.section	.text._ZN6DadGFX10cLayerBaseD2Ev,"axG",%progbits,_ZN6DadGFX10cLayerBaseD5Ev,comdat
  20              		.align	1
  21              		.weak	_ZN6DadGFX10cLayerBaseD2Ev
  22              		.syntax unified
  23              		.thumb
  24              		.thumb_func
  26              	_ZN6DadGFX10cLayerBaseD2Ev:
  27              	.LVL0:
  28              	.LFB4540:
  29              		.file 2 "dependencies/DaisySeedGFX2/cDisplay.h"
   1:dependencies/DaisySeedGFX2/cDisplay.h **** //====================================================================================
   2:dependencies/DaisySeedGFX2/cDisplay.h **** // cDisplay
   3:dependencies/DaisySeedGFX2/cDisplay.h **** //  Management of an SPI-based display on an STM32 processor
   4:dependencies/DaisySeedGFX2/cDisplay.h **** //  Features:
   5:dependencies/DaisySeedGFX2/cDisplay.h **** //  - Transfers only modified blocks to optimize performance
   6:dependencies/DaisySeedGFX2/cDisplay.h **** //  - Uses a framebuffer and multiple layers for rendering
   7:dependencies/DaisySeedGFX2/cDisplay.h **** //  
   8:dependencies/DaisySeedGFX2/cDisplay.h **** // Copyright (c) 2025 Dad Design.
   9:dependencies/DaisySeedGFX2/cDisplay.h **** //====================================================================================
  10:dependencies/DaisySeedGFX2/cDisplay.h **** #pragma once 
  11:dependencies/DaisySeedGFX2/cDisplay.h **** #include <stdint.h>             // Standard integer types
  12:dependencies/DaisySeedGFX2/cDisplay.h **** #include <vector>               // STL vector for dynamic arrays
  13:dependencies/DaisySeedGFX2/cDisplay.h **** #include "TFT_SPI.h"            // SPI driver for the TFT display
  14:dependencies/DaisySeedGFX2/cDisplay.h **** #include "GFX.h"                // GFX library
  15:dependencies/DaisySeedGFX2/cDisplay.h **** 
  16:dependencies/DaisySeedGFX2/cDisplay.h **** namespace DadGFX {  
  17:dependencies/DaisySeedGFX2/cDisplay.h **** 
  18:dependencies/DaisySeedGFX2/cDisplay.h **** //***********************************************************************************
  19:dependencies/DaisySeedGFX2/cDisplay.h **** // Macro utility
  20:dependencies/DaisySeedGFX2/cDisplay.h **** //***********************************************************************************
  21:dependencies/DaisySeedGFX2/cDisplay.h **** #define DECLARE_DISPLAY(DisplayName)\
  22:dependencies/DaisySeedGFX2/cDisplay.h **** DadGFX::sFIFO_Data   DMA_BUFFER_MEM_SECTION  DisplayName##FIFO;									 /*FIFO pour émission SPI 
  23:dependencies/DaisySeedGFX2/cDisplay.h **** DadGFX::sColor       DSY_SDRAM_BSS           DisplayName##BlocFrame[BLOC_HEIGHT][BLOC_WIDTH];    /*
  24:dependencies/DaisySeedGFX2/cDisplay.h **** DadGFX::cDisplay 				 			 DisplayName;					                     /* Screen */
  25:dependencies/DaisySeedGFX2/cDisplay.h **** 
  26:dependencies/DaisySeedGFX2/cDisplay.h **** #define INIT_DISPLAY(DisplayName) DisplayName.init(&DisplayName##FIFO, &DisplayName##BlocFrame[0][0
  27:dependencies/DaisySeedGFX2/cDisplay.h **** 
  28:dependencies/DaisySeedGFX2/cDisplay.h **** #define DECLARE_LAYER(LayerName, ValWidth, ValHeight) \
  29:dependencies/DaisySeedGFX2/cDisplay.h **** static DadGFX::sColor DSY_SDRAM_BSS __Layer##LayerName[ValWidth][ValHeight]; \
ARM GAS  C:\Users\Oliver\AppData\Local\Temp\ccdKDjJp.s 			page 2


  30:dependencies/DaisySeedGFX2/cDisplay.h **** constexpr int Width##LayerName = ValWidth; \
  31:dependencies/DaisySeedGFX2/cDisplay.h **** constexpr int Height##LayerName = ValHeight;
  32:dependencies/DaisySeedGFX2/cDisplay.h **** 
  33:dependencies/DaisySeedGFX2/cDisplay.h **** #define ADD_LAYER(LayerName, PosX, PosY, PosZ) \
  34:dependencies/DaisySeedGFX2/cDisplay.h **** __Display.addLayer(&__Layer##LayerName[0][0], PosX, PosY, Width##LayerName, Height##LayerName, PosZ
  35:dependencies/DaisySeedGFX2/cDisplay.h **** 
  36:dependencies/DaisySeedGFX2/cDisplay.h **** constexpr int NB_BLOC_MAX = (NB_BLOC_WIDTH > NB_BLOC_HEIGHT) ? NB_BLOC_WIDTH : NB_BLOC_HEIGHT;
  37:dependencies/DaisySeedGFX2/cDisplay.h **** //***********************************************************************************
  38:dependencies/DaisySeedGFX2/cDisplay.h **** // Block size definition based on color depth
  39:dependencies/DaisySeedGFX2/cDisplay.h **** //***********************************************************************************
  40:dependencies/DaisySeedGFX2/cDisplay.h **** #if TFT_COLOR == 16
  41:dependencies/DaisySeedGFX2/cDisplay.h ****     #define TAILLE_BLOC (BLOC_WIDTH * BLOC_HEIGHT * 2)  // Block size for 16-bit color
  42:dependencies/DaisySeedGFX2/cDisplay.h **** #else
  43:dependencies/DaisySeedGFX2/cDisplay.h ****     #define TAILLE_BLOC (BLOC_WIDTH * BLOC_HEIGHT * 3)  // Block size for 24-bit color
  44:dependencies/DaisySeedGFX2/cDisplay.h **** #endif
  45:dependencies/DaisySeedGFX2/cDisplay.h **** 
  46:dependencies/DaisySeedGFX2/cDisplay.h **** class cDisplay;
  47:dependencies/DaisySeedGFX2/cDisplay.h **** class cLayer;
  48:dependencies/DaisySeedGFX2/cDisplay.h **** 
  49:dependencies/DaisySeedGFX2/cDisplay.h **** //***********************************************************************************
  50:dependencies/DaisySeedGFX2/cDisplay.h **** // Enumerations
  51:dependencies/DaisySeedGFX2/cDisplay.h **** //***********************************************************************************
  52:dependencies/DaisySeedGFX2/cDisplay.h **** 
  53:dependencies/DaisySeedGFX2/cDisplay.h **** // --------------------------------------------------------------------------
  54:dependencies/DaisySeedGFX2/cDisplay.h **** // Display orientation modes
  55:dependencies/DaisySeedGFX2/cDisplay.h **** enum class ORIENTATION {
  56:dependencies/DaisySeedGFX2/cDisplay.h ****     Portrait,      // Vertical orientation
  57:dependencies/DaisySeedGFX2/cDisplay.h ****     Landscape      // Horizontal orientation
  58:dependencies/DaisySeedGFX2/cDisplay.h **** };
  59:dependencies/DaisySeedGFX2/cDisplay.h **** 
  60:dependencies/DaisySeedGFX2/cDisplay.h **** // Layer write modes
  61:dependencies/DaisySeedGFX2/cDisplay.h **** enum class DRAW_MODE {
  62:dependencies/DaisySeedGFX2/cDisplay.h ****     Blend,       // Blend layers with transparency
  63:dependencies/DaisySeedGFX2/cDisplay.h ****     Overwrite    // Overwrite completely
  64:dependencies/DaisySeedGFX2/cDisplay.h **** };
  65:dependencies/DaisySeedGFX2/cDisplay.h **** 
  66:dependencies/DaisySeedGFX2/cDisplay.h **** //***********************************************************************************
  67:dependencies/DaisySeedGFX2/cDisplay.h **** // Cmd_CASET
  68:dependencies/DaisySeedGFX2/cDisplay.h **** //   SPI Command for column selection
  69:dependencies/DaisySeedGFX2/cDisplay.h **** //*********************************************************************************** 
  70:dependencies/DaisySeedGFX2/cDisplay.h **** class Cmd_CASET {
  71:dependencies/DaisySeedGFX2/cDisplay.h **** public:
  72:dependencies/DaisySeedGFX2/cDisplay.h ****     friend class cDisplay;
  73:dependencies/DaisySeedGFX2/cDisplay.h **** 
  74:dependencies/DaisySeedGFX2/cDisplay.h ****     // --------------------------------------------------------------------------
  75:dependencies/DaisySeedGFX2/cDisplay.h ****     // Constructor
  76:dependencies/DaisySeedGFX2/cDisplay.h ****     Cmd_CASET() {
  77:dependencies/DaisySeedGFX2/cDisplay.h ****         m_Commande = TFT_CASET;  // Initialize with the TFT_CASET command
  78:dependencies/DaisySeedGFX2/cDisplay.h ****     }
  79:dependencies/DaisySeedGFX2/cDisplay.h **** 
  80:dependencies/DaisySeedGFX2/cDisplay.h ****     // --------------------------------------------------------------------------
  81:dependencies/DaisySeedGFX2/cDisplay.h ****     // Define the horizontal window (column range)
  82:dependencies/DaisySeedGFX2/cDisplay.h ****     void setData(uint16_t x, uint16_t dx) {
  83:dependencies/DaisySeedGFX2/cDisplay.h ****         #if XSCREEN_OFFSET != 0
  84:dependencies/DaisySeedGFX2/cDisplay.h ****             x += XSCREEN_OFFSET;
  85:dependencies/DaisySeedGFX2/cDisplay.h ****             dx += XSCREEN_OFFSET;
  86:dependencies/DaisySeedGFX2/cDisplay.h ****         #endif
ARM GAS  C:\Users\Oliver\AppData\Local\Temp\ccdKDjJp.s 			page 3


  87:dependencies/DaisySeedGFX2/cDisplay.h ****         m_Data[0] = x >> 8;       // High byte of the starting column
  88:dependencies/DaisySeedGFX2/cDisplay.h ****         m_Data[1] = x & 0xFF;     // Low byte of the starting column
  89:dependencies/DaisySeedGFX2/cDisplay.h ****         m_Data[2] = dx >> 8;      // High byte of the ending column
  90:dependencies/DaisySeedGFX2/cDisplay.h ****         m_Data[3] = dx & 0xFF;    // Low byte of the ending column
  91:dependencies/DaisySeedGFX2/cDisplay.h ****     }
  92:dependencies/DaisySeedGFX2/cDisplay.h **** 
  93:dependencies/DaisySeedGFX2/cDisplay.h ****     // --------------------------------------------------------------------------
  94:dependencies/DaisySeedGFX2/cDisplay.h ****     // Class data
  95:dependencies/DaisySeedGFX2/cDisplay.h **** protected:
  96:dependencies/DaisySeedGFX2/cDisplay.h ****     uint8_t m_Commande;  // SPI command identifier
  97:dependencies/DaisySeedGFX2/cDisplay.h ****     uint8_t m_Data[4];   // Command data for the column range
  98:dependencies/DaisySeedGFX2/cDisplay.h **** };
  99:dependencies/DaisySeedGFX2/cDisplay.h **** 
 100:dependencies/DaisySeedGFX2/cDisplay.h **** //***********************************************************************************
 101:dependencies/DaisySeedGFX2/cDisplay.h **** // Cmd_RASET
 102:dependencies/DaisySeedGFX2/cDisplay.h **** //   SPI Command for row selection
 103:dependencies/DaisySeedGFX2/cDisplay.h **** //*********************************************************************************** 
 104:dependencies/DaisySeedGFX2/cDisplay.h **** class Cmd_RASET {
 105:dependencies/DaisySeedGFX2/cDisplay.h **** public:
 106:dependencies/DaisySeedGFX2/cDisplay.h ****     friend class cDisplay;
 107:dependencies/DaisySeedGFX2/cDisplay.h **** 
 108:dependencies/DaisySeedGFX2/cDisplay.h ****     // --------------------------------------------------------------------------
 109:dependencies/DaisySeedGFX2/cDisplay.h ****     // Constructor
 110:dependencies/DaisySeedGFX2/cDisplay.h ****     Cmd_RASET() {
 111:dependencies/DaisySeedGFX2/cDisplay.h ****         m_Commande = TFT_RASET;  // Initialize with the TFT_RASET command
 112:dependencies/DaisySeedGFX2/cDisplay.h ****     }
 113:dependencies/DaisySeedGFX2/cDisplay.h **** 
 114:dependencies/DaisySeedGFX2/cDisplay.h ****     // --------------------------------------------------------------------------
 115:dependencies/DaisySeedGFX2/cDisplay.h ****     // Define the vertical window (row range)
 116:dependencies/DaisySeedGFX2/cDisplay.h ****     void setData(uint16_t y, uint16_t dy) {
 117:dependencies/DaisySeedGFX2/cDisplay.h ****         #if YSCREEN_OFFSET != 0
 118:dependencies/DaisySeedGFX2/cDisplay.h ****         y += YSCREEN_OFFSET;
 119:dependencies/DaisySeedGFX2/cDisplay.h ****         dy += YSCREEN_OFFSET;
 120:dependencies/DaisySeedGFX2/cDisplay.h ****         #endif
 121:dependencies/DaisySeedGFX2/cDisplay.h ****         m_Data[0] = y >> 8;       // High byte of the starting row
 122:dependencies/DaisySeedGFX2/cDisplay.h ****         m_Data[1] = y & 0xFF;     // Low byte of the starting row
 123:dependencies/DaisySeedGFX2/cDisplay.h ****         m_Data[2] = dy >> 8;      // High byte of the ending row
 124:dependencies/DaisySeedGFX2/cDisplay.h ****         m_Data[3] = dy & 0xFF;    // Low byte of the ending row
 125:dependencies/DaisySeedGFX2/cDisplay.h ****     }
 126:dependencies/DaisySeedGFX2/cDisplay.h **** 
 127:dependencies/DaisySeedGFX2/cDisplay.h ****     // --------------------------------------------------------------------------
 128:dependencies/DaisySeedGFX2/cDisplay.h ****     // Class data
 129:dependencies/DaisySeedGFX2/cDisplay.h **** protected:
 130:dependencies/DaisySeedGFX2/cDisplay.h ****     uint8_t m_Commande;  // SPI command identifier
 131:dependencies/DaisySeedGFX2/cDisplay.h ****     uint8_t m_Data[4];   // Command data for the row range
 132:dependencies/DaisySeedGFX2/cDisplay.h **** };
 133:dependencies/DaisySeedGFX2/cDisplay.h **** 
 134:dependencies/DaisySeedGFX2/cDisplay.h **** //***********************************************************************************
 135:dependencies/DaisySeedGFX2/cDisplay.h **** // Cmd_RAMWR
 136:dependencies/DaisySeedGFX2/cDisplay.h **** //   SPI Command for pixel data writing
 137:dependencies/DaisySeedGFX2/cDisplay.h **** //***********************************************************************************
 138:dependencies/DaisySeedGFX2/cDisplay.h **** class Cmd_RAMWR {
 139:dependencies/DaisySeedGFX2/cDisplay.h **** public:
 140:dependencies/DaisySeedGFX2/cDisplay.h ****     friend class cDisplay;
 141:dependencies/DaisySeedGFX2/cDisplay.h **** 
 142:dependencies/DaisySeedGFX2/cDisplay.h ****     // --------------------------------------------------------------------------
 143:dependencies/DaisySeedGFX2/cDisplay.h ****     // Constructor
ARM GAS  C:\Users\Oliver\AppData\Local\Temp\ccdKDjJp.s 			page 4


 144:dependencies/DaisySeedGFX2/cDisplay.h ****     Cmd_RAMWR() {
 145:dependencies/DaisySeedGFX2/cDisplay.h ****         m_Commande = TFT_RAMWR;  // Initialize with the TFT_RAMWR command
 146:dependencies/DaisySeedGFX2/cDisplay.h ****     }
 147:dependencies/DaisySeedGFX2/cDisplay.h **** 
 148:dependencies/DaisySeedGFX2/cDisplay.h ****     // --------------------------------------------------------------------------
 149:dependencies/DaisySeedGFX2/cDisplay.h ****     // Get adresse of buffer data transfert
 150:dependencies/DaisySeedGFX2/cDisplay.h ****     inline uint8_t* getData(){
 151:dependencies/DaisySeedGFX2/cDisplay.h ****         return m_Data;
 152:dependencies/DaisySeedGFX2/cDisplay.h ****     }
 153:dependencies/DaisySeedGFX2/cDisplay.h **** 
 154:dependencies/DaisySeedGFX2/cDisplay.h ****     // --------------------------------------------------------------------------
 155:dependencies/DaisySeedGFX2/cDisplay.h ****     // Class data
 156:dependencies/DaisySeedGFX2/cDisplay.h **** protected:
 157:dependencies/DaisySeedGFX2/cDisplay.h ****     uint8_t m_Commande;           // SPI command identifier
 158:dependencies/DaisySeedGFX2/cDisplay.h ****     uint8_t m_Data[TAILLE_BLOC];  // Pixel data block to be transferred
 159:dependencies/DaisySeedGFX2/cDisplay.h **** };
 160:dependencies/DaisySeedGFX2/cDisplay.h **** 
 161:dependencies/DaisySeedGFX2/cDisplay.h **** //***********************************************************************************
 162:dependencies/DaisySeedGFX2/cDisplay.h **** // sFIFO_Data 
 163:dependencies/DaisySeedGFX2/cDisplay.h **** //   Stores a command and a pixel block to transmit to the display
 164:dependencies/DaisySeedGFX2/cDisplay.h **** //   For DMA operation, this structure must be instantiated in the 
 165:dependencies/DaisySeedGFX2/cDisplay.h **** //   DMA_BUFFER_MEM_SECTION memory
 166:dependencies/DaisySeedGFX2/cDisplay.h **** //*********************************************************************************** 
 167:dependencies/DaisySeedGFX2/cDisplay.h **** 
 168:dependencies/DaisySeedGFX2/cDisplay.h **** struct sFIFO_Data {
 169:dependencies/DaisySeedGFX2/cDisplay.h ****     Cmd_CASET m_CmdCASET[SIZE_FIFO];  // FIFO for column selection commands
 170:dependencies/DaisySeedGFX2/cDisplay.h ****     Cmd_RASET m_CmdRASET[SIZE_FIFO]; // FIFO for row selection commands
 171:dependencies/DaisySeedGFX2/cDisplay.h ****     Cmd_RAMWR m_CmdRAWWR[SIZE_FIFO]; // FIFO for pixel data write commands
 172:dependencies/DaisySeedGFX2/cDisplay.h **** };
 173:dependencies/DaisySeedGFX2/cDisplay.h **** 
 174:dependencies/DaisySeedGFX2/cDisplay.h **** class cLayerBase;
 175:dependencies/DaisySeedGFX2/cDisplay.h **** class cImageLayer;
 176:dependencies/DaisySeedGFX2/cDisplay.h **** //***********************************************************************************
 177:dependencies/DaisySeedGFX2/cDisplay.h **** // cDisplay
 178:dependencies/DaisySeedGFX2/cDisplay.h **** //  Display Manager Class
 179:dependencies/DaisySeedGFX2/cDisplay.h **** //***********************************************************************************
 180:dependencies/DaisySeedGFX2/cDisplay.h **** class cDisplay : protected TFT_SPI {
 181:dependencies/DaisySeedGFX2/cDisplay.h **** public:
 182:dependencies/DaisySeedGFX2/cDisplay.h **** friend class cLayer;
 183:dependencies/DaisySeedGFX2/cDisplay.h **** friend class cLayerBase;
 184:dependencies/DaisySeedGFX2/cDisplay.h **** friend class cImageLayer;
 185:dependencies/DaisySeedGFX2/cDisplay.h ****     // --------------------------------------------------------------------------
 186:dependencies/DaisySeedGFX2/cDisplay.h ****     // Constructor
 187:dependencies/DaisySeedGFX2/cDisplay.h ****     // Initializes the display manager, clears layers, and resets layer change flag
 188:dependencies/DaisySeedGFX2/cDisplay.h ****     cDisplay();
 189:dependencies/DaisySeedGFX2/cDisplay.h ****     
 190:dependencies/DaisySeedGFX2/cDisplay.h ****     // Destructor
 191:dependencies/DaisySeedGFX2/cDisplay.h ****     // Cleans up resources, disables DMA2D, and deletes allocated layers
 192:dependencies/DaisySeedGFX2/cDisplay.h ****     ~cDisplay();
 193:dependencies/DaisySeedGFX2/cDisplay.h ****     
 194:dependencies/DaisySeedGFX2/cDisplay.h ****     // --------------------------------------------------------------------------
 195:dependencies/DaisySeedGFX2/cDisplay.h ****     // Initialize the display manager
 196:dependencies/DaisySeedGFX2/cDisplay.h ****     // Configures layers, screen size, dirty blocks, and initializes hardware
 197:dependencies/DaisySeedGFX2/cDisplay.h ****     void init(sFIFO_Data *pFIFO_Data, sColor* pDitryBlocFrame);
 198:dependencies/DaisySeedGFX2/cDisplay.h **** 
 199:dependencies/DaisySeedGFX2/cDisplay.h ****     // --------------------------------------------------------------------------
 200:dependencies/DaisySeedGFX2/cDisplay.h ****     // Add a new layer to the display
ARM GAS  C:\Users\Oliver\AppData\Local\Temp\ccdKDjJp.s 			page 5


 201:dependencies/DaisySeedGFX2/cDisplay.h ****     // Parameters:
 202:dependencies/DaisySeedGFX2/cDisplay.h ****     //   pLayerFrame: Framebuffer pointer
 203:dependencies/DaisySeedGFX2/cDisplay.h ****     //   x, y: Position of the layer
 204:dependencies/DaisySeedGFX2/cDisplay.h ****     //   Width, Height: Dimensions of the layer
 205:dependencies/DaisySeedGFX2/cDisplay.h ****     //   zPos: Z-order of the layer (stacking order)
 206:dependencies/DaisySeedGFX2/cDisplay.h ****     cLayer* addLayer(sColor* pLayerFrame, uint16_t x, uint16_t y, uint16_t Width, uint16_t Height, 
 207:dependencies/DaisySeedGFX2/cDisplay.h ****     
 208:dependencies/DaisySeedGFX2/cDisplay.h ****     // --------------------------------------------------------------------------
 209:dependencies/DaisySeedGFX2/cDisplay.h ****     // Add a new Image layer to the display
 210:dependencies/DaisySeedGFX2/cDisplay.h ****     // Parameters:
 211:dependencies/DaisySeedGFX2/cDisplay.h ****     //   pLayerFrame: Framebuffer pointer
 212:dependencies/DaisySeedGFX2/cDisplay.h ****     //   x, y: Position of the layer
 213:dependencies/DaisySeedGFX2/cDisplay.h ****     //   Width, Height: Dimensions of the layer
 214:dependencies/DaisySeedGFX2/cDisplay.h ****     //   zPos: Z-order of the layer (stacking order)
 215:dependencies/DaisySeedGFX2/cDisplay.h ****     cImageLayer* addLayer(const uint8_t * pLayerFrame, uint16_t x, uint16_t y, uint16_t Width, uint
 216:dependencies/DaisySeedGFX2/cDisplay.h ****     
 217:dependencies/DaisySeedGFX2/cDisplay.h ****     // --------------------------------------------------------------------------
 218:dependencies/DaisySeedGFX2/cDisplay.h ****     // Set the screen's rotation and adjust dirty block configuration
 219:dependencies/DaisySeedGFX2/cDisplay.h ****     void setOrientation(Rotation r);
 220:dependencies/DaisySeedGFX2/cDisplay.h ****     
 221:dependencies/DaisySeedGFX2/cDisplay.h ****     // --------------------------------------------------------------------------
 222:dependencies/DaisySeedGFX2/cDisplay.h ****     // Flush all dirty blocks to the display
 223:dependencies/DaisySeedGFX2/cDisplay.h ****     void flush();
 224:dependencies/DaisySeedGFX2/cDisplay.h **** 
 225:dependencies/DaisySeedGFX2/cDisplay.h ****     // --------------------------------------------------------------------------
 226:dependencies/DaisySeedGFX2/cDisplay.h ****     // Get the width of the Display
 227:dependencies/DaisySeedGFX2/cDisplay.h ****     inline uint16_t getWith(){
 228:dependencies/DaisySeedGFX2/cDisplay.h ****         return m_Width;
 229:dependencies/DaisySeedGFX2/cDisplay.h ****     }
 230:dependencies/DaisySeedGFX2/cDisplay.h **** 
 231:dependencies/DaisySeedGFX2/cDisplay.h ****     // --------------------------------------------------------------------------
 232:dependencies/DaisySeedGFX2/cDisplay.h ****     // Get the height of the Display
 233:dependencies/DaisySeedGFX2/cDisplay.h ****     inline uint16_t getHeight(){
 234:dependencies/DaisySeedGFX2/cDisplay.h ****         return m_Height;
 235:dependencies/DaisySeedGFX2/cDisplay.h ****     }
 236:dependencies/DaisySeedGFX2/cDisplay.h **** 
 237:dependencies/DaisySeedGFX2/cDisplay.h **** protected :
 238:dependencies/DaisySeedGFX2/cDisplay.h ****     // -----------------------------------------------------------------------------
 239:dependencies/DaisySeedGFX2/cDisplay.h ****     // Blends two rectangular blocks of pixels using alpha compositing.
 240:dependencies/DaisySeedGFX2/cDisplay.h ****     // 
 241:dependencies/DaisySeedGFX2/cDisplay.h ****     // This function processes two pixel sources (`pSource1` and `pSource2`) over a 
 242:dependencies/DaisySeedGFX2/cDisplay.h ****     // specified width and height, blending them and storing the result in `pDest`.
 243:dependencies/DaisySeedGFX2/cDisplay.h ****     // Alpha transparency is managed, handling fully opaque, semi-transparent, and
 244:dependencies/DaisySeedGFX2/cDisplay.h ****     // transparent cases. Row padding for each buffer is accounted for using offsets.
 245:dependencies/DaisySeedGFX2/cDisplay.h ****     // 
 246:dependencies/DaisySeedGFX2/cDisplay.h ****     // Parameters:
 247:dependencies/DaisySeedGFX2/cDisplay.h ****     // - OutputOffset: Offset to skip at the end of each row in the destination buffer.
 248:dependencies/DaisySeedGFX2/cDisplay.h ****     // - InputOffset1: Offset to skip at the end of each row in the first source buffer.
 249:dependencies/DaisySeedGFX2/cDisplay.h ****     // - InputOffset2: Offset to skip at the end of each row in the second source buffer.
 250:dependencies/DaisySeedGFX2/cDisplay.h ****     // - pSource1: Pointer to the first source pixel data (foreground).
 251:dependencies/DaisySeedGFX2/cDisplay.h ****     // - pSource2: Pointer to the second source pixel data (background).
 252:dependencies/DaisySeedGFX2/cDisplay.h ****     // - pDest: Pointer to the destination pixel data.
 253:dependencies/DaisySeedGFX2/cDisplay.h ****     // - Width: Width of the block to process, in pixels.
 254:dependencies/DaisySeedGFX2/cDisplay.h ****     // - Height: Height of the block to process, in pixels.
 255:dependencies/DaisySeedGFX2/cDisplay.h ****     void Blend2Bloc( uint32_t OutputOffset, uint32_t  InputOffset1, uint32_t  InputOffset2, DadGFX:
 256:dependencies/DaisySeedGFX2/cDisplay.h **** 
 257:dependencies/DaisySeedGFX2/cDisplay.h ****     // --------------------------------------------------------------------------
ARM GAS  C:\Users\Oliver\AppData\Local\Temp\ccdKDjJp.s 			page 6


 258:dependencies/DaisySeedGFX2/cDisplay.h ****     // Mark layers as changed, requiring re-sorting
 259:dependencies/DaisySeedGFX2/cDisplay.h ****     inline void setLayersChange() {
 260:dependencies/DaisySeedGFX2/cDisplay.h ****         m_LayersChange = 1;
 261:dependencies/DaisySeedGFX2/cDisplay.h ****     }
 262:dependencies/DaisySeedGFX2/cDisplay.h ****     
 263:dependencies/DaisySeedGFX2/cDisplay.h ****     // --------------------------------------------------------------------------
 264:dependencies/DaisySeedGFX2/cDisplay.h ****     // Invalidate a rectangular region of the screen
 265:dependencies/DaisySeedGFX2/cDisplay.h ****     // Marks the corresponding dirty blocks for refresh
 266:dependencies/DaisySeedGFX2/cDisplay.h ****     void invalidateRect(uint16_t x0, uint16_t y0, uint16_t x1, uint16_t y1);
 267:dependencies/DaisySeedGFX2/cDisplay.h ****     
 268:dependencies/DaisySeedGFX2/cDisplay.h ****     // --------------------------------------------------------------------------
 269:dependencies/DaisySeedGFX2/cDisplay.h ****     // Invalidate a single point on the screen
 270:dependencies/DaisySeedGFX2/cDisplay.h ****     // Marks the corresponding dirty block for refresh
 271:dependencies/DaisySeedGFX2/cDisplay.h ****     inline void invalidatePoint(uint16_t x0, uint16_t y0) {
 272:dependencies/DaisySeedGFX2/cDisplay.h ****         m_DirtyBlocks[x0 / m_DitryBlocWidth][y0 / m_DitryBlocHeight] = 1;
 273:dependencies/DaisySeedGFX2/cDisplay.h ****     }
 274:dependencies/DaisySeedGFX2/cDisplay.h **** private :
 275:dependencies/DaisySeedGFX2/cDisplay.h ****     // --------------------------------------------------------------------------
 276:dependencies/DaisySeedGFX2/cDisplay.h ****     // Mark all blocks as dirty (require refresh)
 277:dependencies/DaisySeedGFX2/cDisplay.h ****     inline void invalidateAll() {
 278:dependencies/DaisySeedGFX2/cDisplay.h ****         memset(m_DirtyBlocks, 1, sizeof(m_DirtyBlocks));
 279:dependencies/DaisySeedGFX2/cDisplay.h ****     }
 280:dependencies/DaisySeedGFX2/cDisplay.h **** 
 281:dependencies/DaisySeedGFX2/cDisplay.h ****     // --------------------------------------------------------------------------
 282:dependencies/DaisySeedGFX2/cDisplay.h ****     // Validate all blocks (no refresh required)
 283:dependencies/DaisySeedGFX2/cDisplay.h ****     inline void validateAll() {
 284:dependencies/DaisySeedGFX2/cDisplay.h ****         memset(m_DirtyBlocks, 0, sizeof(m_DirtyBlocks));
 285:dependencies/DaisySeedGFX2/cDisplay.h ****     }
 286:dependencies/DaisySeedGFX2/cDisplay.h **** 
 287:dependencies/DaisySeedGFX2/cDisplay.h ****     // --------------------------------------------------------------------------
 288:dependencies/DaisySeedGFX2/cDisplay.h ****     // Adjust frame dimensions for the screen orientation
 289:dependencies/DaisySeedGFX2/cDisplay.h ****     void switchOrientation(ORIENTATION Orientation);
 290:dependencies/DaisySeedGFX2/cDisplay.h **** 
 291:dependencies/DaisySeedGFX2/cDisplay.h ****     // ==========================================================================
 292:dependencies/DaisySeedGFX2/cDisplay.h ****     // Management of transmission blocks
 293:dependencies/DaisySeedGFX2/cDisplay.h **** 
 294:dependencies/DaisySeedGFX2/cDisplay.h ****     // --------------------------------------------------------------------------
 295:dependencies/DaisySeedGFX2/cDisplay.h ****     // Check if the FIFO buffer is full
 296:dependencies/DaisySeedGFX2/cDisplay.h ****     // Returns true if the FIFO buffer can accept more blocks
 297:dependencies/DaisySeedGFX2/cDisplay.h ****     inline bool isFull() {
 298:dependencies/DaisySeedGFX2/cDisplay.h ****         // Protect m_FIFO_NbElements to avoid race conditions
 299:dependencies/DaisySeedGFX2/cDisplay.h ****         if (m_FIFO_NbElements >= SIZE_FIFO) {
 300:dependencies/DaisySeedGFX2/cDisplay.h ****             return false;  // FIFO is full
 301:dependencies/DaisySeedGFX2/cDisplay.h ****         }
 302:dependencies/DaisySeedGFX2/cDisplay.h ****         return true;  // FIFO is not full
 303:dependencies/DaisySeedGFX2/cDisplay.h ****     }
 304:dependencies/DaisySeedGFX2/cDisplay.h **** 
 305:dependencies/DaisySeedGFX2/cDisplay.h ****     // --------------------------------------------------------------------------
 306:dependencies/DaisySeedGFX2/cDisplay.h ****     // Check if a transmission is in progress
 307:dependencies/DaisySeedGFX2/cDisplay.h ****     // Returns true if the display is currently busy with a transmission
 308:dependencies/DaisySeedGFX2/cDisplay.h ****     inline bool isBusy() {
 309:dependencies/DaisySeedGFX2/cDisplay.h ****         return m_Busy;
 310:dependencies/DaisySeedGFX2/cDisplay.h ****     }
 311:dependencies/DaisySeedGFX2/cDisplay.h **** 
 312:dependencies/DaisySeedGFX2/cDisplay.h ****     // --------------------------------------------------------------------------
 313:dependencies/DaisySeedGFX2/cDisplay.h ****     // Add a block to the FIFO for transmission
 314:dependencies/DaisySeedGFX2/cDisplay.h ****     // Parameters:
ARM GAS  C:\Users\Oliver\AppData\Local\Temp\ccdKDjJp.s 			page 7


 315:dependencies/DaisySeedGFX2/cDisplay.h ****     //   x, y: Coordinates of the block to add
 316:dependencies/DaisySeedGFX2/cDisplay.h ****     // Returns:
 317:dependencies/DaisySeedGFX2/cDisplay.h ****     //   true if the block was successfully added to the FIFO
 318:dependencies/DaisySeedGFX2/cDisplay.h ****     bool AddBloc(uint16_t x, uint16_t y);
 319:dependencies/DaisySeedGFX2/cDisplay.h **** 
 320:dependencies/DaisySeedGFX2/cDisplay.h ****     // --------------------------------------------------------------------------
 321:dependencies/DaisySeedGFX2/cDisplay.h ****     // Send the blocks currently in the FIFO using DMA
 322:dependencies/DaisySeedGFX2/cDisplay.h ****     // Returns:
 323:dependencies/DaisySeedGFX2/cDisplay.h ****     //   true if the transmission started successfully
 324:dependencies/DaisySeedGFX2/cDisplay.h ****     bool sendDMA();
 325:dependencies/DaisySeedGFX2/cDisplay.h **** 
 326:dependencies/DaisySeedGFX2/cDisplay.h ****     // --------------------------------------------------------------------------
 327:dependencies/DaisySeedGFX2/cDisplay.h ****     // Callbacks for SPI and DMA transmissions
 328:dependencies/DaisySeedGFX2/cDisplay.h ****     // These methods are called when specific SPI or DMA transmission steps complete
 329:dependencies/DaisySeedGFX2/cDisplay.h ****     static void sendCASETDMAData(void* context, daisy::SpiHandle::Result result);
 330:dependencies/DaisySeedGFX2/cDisplay.h ****     static void sendRASETDMACmd(void* context, daisy::SpiHandle::Result result);
 331:dependencies/DaisySeedGFX2/cDisplay.h ****     static void sendRASETDMAData(void* context, daisy::SpiHandle::Result result);
 332:dependencies/DaisySeedGFX2/cDisplay.h ****     static void sendRAWWRDMACmd(void* context, daisy::SpiHandle::Result result);
 333:dependencies/DaisySeedGFX2/cDisplay.h ****     static void sendRAWWRDMAData(void* context, daisy::SpiHandle::Result result);
 334:dependencies/DaisySeedGFX2/cDisplay.h ****     static void endDMA(void* context, daisy::SpiHandle::Result result);
 335:dependencies/DaisySeedGFX2/cDisplay.h **** 
 336:dependencies/DaisySeedGFX2/cDisplay.h ****     // --------------------------------------------------------------------------
 337:dependencies/DaisySeedGFX2/cDisplay.h ****     // Attributes for screen and layer management
 338:dependencies/DaisySeedGFX2/cDisplay.h ****     uint16_t m_Width;             // Width of the display
 339:dependencies/DaisySeedGFX2/cDisplay.h ****     uint16_t m_Height;            // Height of the display
 340:dependencies/DaisySeedGFX2/cDisplay.h **** 
 341:dependencies/DaisySeedGFX2/cDisplay.h ****     std::vector<cLayerBase*> m_TabLayers;  // List of active layers
 342:dependencies/DaisySeedGFX2/cDisplay.h ****     uint8_t m_LayersChange;       // Flag to indicate if layers need re-sorting
 343:dependencies/DaisySeedGFX2/cDisplay.h **** 
 344:dependencies/DaisySeedGFX2/cDisplay.h ****     ORIENTATION m_Orientation;   // Current screen orientation (Portrait/Landscape)
 345:dependencies/DaisySeedGFX2/cDisplay.h **** 
 346:dependencies/DaisySeedGFX2/cDisplay.h ****     // --------------------------------------------------------------------------
 347:dependencies/DaisySeedGFX2/cDisplay.h ****     // Dirty block management
 348:dependencies/DaisySeedGFX2/cDisplay.h ****     uint8_t m_DirtyBlocks[NB_BLOC_MAX][NB_BLOC_MAX];  // Dirty block flags
 349:dependencies/DaisySeedGFX2/cDisplay.h ****     uint8_t m_DitryBlocWidth;       // Width of a dirty block in pixels
 350:dependencies/DaisySeedGFX2/cDisplay.h ****     uint8_t m_DitryBlocHeight;      // Height of a dirty block in pixels
 351:dependencies/DaisySeedGFX2/cDisplay.h ****     uint8_t m_NbDitryBlocX;         // Number of dirty blocks horizontally
 352:dependencies/DaisySeedGFX2/cDisplay.h ****     uint8_t m_NbDitryBlocY;         // Number of dirty blocks vertically
 353:dependencies/DaisySeedGFX2/cDisplay.h ****     sColor* m_pDitryBlocFrame;      // Temporary framebuffer for a dirty block
 354:dependencies/DaisySeedGFX2/cDisplay.h **** 
 355:dependencies/DaisySeedGFX2/cDisplay.h ****     // --------------------------------------------------------------------------
 356:dependencies/DaisySeedGFX2/cDisplay.h ****     // FIFO buffer for block transmission
 357:dependencies/DaisySeedGFX2/cDisplay.h ****     sFIFO_Data* m_pFIFO = nullptr;  // Pointer to the FIFO buffer
 358:dependencies/DaisySeedGFX2/cDisplay.h ****     uint16_t m_FIFO_in = 0;         // Index of the first free block (FIFO input)
 359:dependencies/DaisySeedGFX2/cDisplay.h ****     uint16_t m_FIFO_out = 0;        // Index of the next block to transmit (FIFO output)
 360:dependencies/DaisySeedGFX2/cDisplay.h ****     volatile uint16_t m_FIFO_NbElements = 0; // Number of elements currently in the FIFO
 361:dependencies/DaisySeedGFX2/cDisplay.h ****     volatile bool m_Busy = false;            // Flag to indicate if a transmission is ongoing
 362:dependencies/DaisySeedGFX2/cDisplay.h **** };
 363:dependencies/DaisySeedGFX2/cDisplay.h **** 
 364:dependencies/DaisySeedGFX2/cDisplay.h **** //***********************************************************************************
 365:dependencies/DaisySeedGFX2/cDisplay.h **** // cLayer Base
 366:dependencies/DaisySeedGFX2/cDisplay.h **** //  Manages a base graphical layer
 367:dependencies/DaisySeedGFX2/cDisplay.h **** //***********************************************************************************
 368:dependencies/DaisySeedGFX2/cDisplay.h **** class cLayerBase {
 369:dependencies/DaisySeedGFX2/cDisplay.h **** friend cDisplay;
 370:dependencies/DaisySeedGFX2/cDisplay.h **** public:
 371:dependencies/DaisySeedGFX2/cDisplay.h ****     cLayerBase(){}  // Constructor
ARM GAS  C:\Users\Oliver\AppData\Local\Temp\ccdKDjJp.s 			page 8


 372:dependencies/DaisySeedGFX2/cDisplay.h ****     virtual ~cLayerBase() {}  // Destructor
  30              		.loc 2 372 13 view -0
  31              		.cfi_startproc
  32              		@ args = 0, pretend = 0, frame = 0
  33              		@ frame_needed = 0, uses_anonymous_args = 0
  34              		@ link register save eliminated.
  35              		.loc 2 372 28 is_stmt 0 view .LVU1
  36 0000 7047     		bx	lr
  37              		.cfi_endproc
  38              	.LFE4540:
  40              		.weak	_ZN6DadGFX10cLayerBaseD1Ev
  41              		.thumb_set _ZN6DadGFX10cLayerBaseD1Ev,_ZN6DadGFX10cLayerBaseD2Ev
  42              		.section	.text._ZN6DadGFX6cLayerD2Ev,"axG",%progbits,_ZN6DadGFX6cLayerD5Ev,comdat
  43              		.align	1
  44              		.weak	_ZN6DadGFX6cLayerD2Ev
  45              		.syntax unified
  46              		.thumb
  47              		.thumb_func
  49              	_ZN6DadGFX6cLayerD2Ev:
  50              	.LVL1:
  51              	.LFB4554:
 373:dependencies/DaisySeedGFX2/cDisplay.h **** 
 374:dependencies/DaisySeedGFX2/cDisplay.h ****     // --------------------------------------------------------------------------
 375:dependencies/DaisySeedGFX2/cDisplay.h ****     // Move the layer to a new position (x, y)
 376:dependencies/DaisySeedGFX2/cDisplay.h ****     DAD_GFX_ERROR moveLayer(uint16_t x, uint16_t y);
 377:dependencies/DaisySeedGFX2/cDisplay.h **** 
 378:dependencies/DaisySeedGFX2/cDisplay.h ****     // --------------------------------------------------------------------------
 379:dependencies/DaisySeedGFX2/cDisplay.h ****     // Change the Z-order of the layer
 380:dependencies/DaisySeedGFX2/cDisplay.h ****     inline void changeZOrder(uint8_t z){
 381:dependencies/DaisySeedGFX2/cDisplay.h ****         m_Z = z;  // Update Z-order
 382:dependencies/DaisySeedGFX2/cDisplay.h ****         m_pDisplay->setLayersChange();  // Notify the display about Z-order change
 383:dependencies/DaisySeedGFX2/cDisplay.h ****         m_pDisplay->invalidateRect(m_X, m_Y, m_X + m_Width-1, m_Y + m_Height-1);  // Invalidate the
 384:dependencies/DaisySeedGFX2/cDisplay.h ****     }
 385:dependencies/DaisySeedGFX2/cDisplay.h **** 
 386:dependencies/DaisySeedGFX2/cDisplay.h ****     // --------------------------------------------------------------------------
 387:dependencies/DaisySeedGFX2/cDisplay.h ****     // Get the X position of the layer
 388:dependencies/DaisySeedGFX2/cDisplay.h ****     inline uint16_t getX(){
 389:dependencies/DaisySeedGFX2/cDisplay.h ****         return m_X;
 390:dependencies/DaisySeedGFX2/cDisplay.h ****     }
 391:dependencies/DaisySeedGFX2/cDisplay.h **** 
 392:dependencies/DaisySeedGFX2/cDisplay.h ****     // --------------------------------------------------------------------------
 393:dependencies/DaisySeedGFX2/cDisplay.h ****     // Get the Y position of the layer
 394:dependencies/DaisySeedGFX2/cDisplay.h ****     inline uint16_t getY(){
 395:dependencies/DaisySeedGFX2/cDisplay.h ****         return m_Y;
 396:dependencies/DaisySeedGFX2/cDisplay.h ****     }
 397:dependencies/DaisySeedGFX2/cDisplay.h **** 
 398:dependencies/DaisySeedGFX2/cDisplay.h ****     // --------------------------------------------------------------------------
 399:dependencies/DaisySeedGFX2/cDisplay.h ****     // Get the Z-order of the layer
 400:dependencies/DaisySeedGFX2/cDisplay.h ****     inline uint16_t getZ(){
 401:dependencies/DaisySeedGFX2/cDisplay.h ****         return m_Z;
 402:dependencies/DaisySeedGFX2/cDisplay.h ****     }
 403:dependencies/DaisySeedGFX2/cDisplay.h **** 
 404:dependencies/DaisySeedGFX2/cDisplay.h ****     // --------------------------------------------------------------------------
 405:dependencies/DaisySeedGFX2/cDisplay.h ****     // Get the width of the layer
 406:dependencies/DaisySeedGFX2/cDisplay.h ****     inline uint16_t getWith(){
 407:dependencies/DaisySeedGFX2/cDisplay.h ****         return m_Width;
 408:dependencies/DaisySeedGFX2/cDisplay.h ****     }
ARM GAS  C:\Users\Oliver\AppData\Local\Temp\ccdKDjJp.s 			page 9


 409:dependencies/DaisySeedGFX2/cDisplay.h **** 
 410:dependencies/DaisySeedGFX2/cDisplay.h ****     // --------------------------------------------------------------------------
 411:dependencies/DaisySeedGFX2/cDisplay.h ****     // Get the height of the layer
 412:dependencies/DaisySeedGFX2/cDisplay.h ****     inline uint16_t getHeight(){
 413:dependencies/DaisySeedGFX2/cDisplay.h ****         return m_Height;
 414:dependencies/DaisySeedGFX2/cDisplay.h ****     }
 415:dependencies/DaisySeedGFX2/cDisplay.h ****     
 416:dependencies/DaisySeedGFX2/cDisplay.h **** protected :
 417:dependencies/DaisySeedGFX2/cDisplay.h ****     // --------------------------------------------------------------------------
 418:dependencies/DaisySeedGFX2/cDisplay.h ****     // Get the pointer to the layer's frame buffer
 419:dependencies/DaisySeedGFX2/cDisplay.h ****     inline sColor* getFrame(){
 420:dependencies/DaisySeedGFX2/cDisplay.h ****         return m_pLayerFrame;
 421:dependencies/DaisySeedGFX2/cDisplay.h ****     }
 422:dependencies/DaisySeedGFX2/cDisplay.h **** 
 423:dependencies/DaisySeedGFX2/cDisplay.h ****     // --------------------------------------------------------------------------
 424:dependencies/DaisySeedGFX2/cDisplay.h ****     // 
 425:dependencies/DaisySeedGFX2/cDisplay.h ****     cDisplay*               m_pDisplay;     // Pointer to the display
 426:dependencies/DaisySeedGFX2/cDisplay.h ****     uint16_t                m_X;            // X position of the layer
 427:dependencies/DaisySeedGFX2/cDisplay.h ****     uint16_t                m_Y;            // Y position of the layer
 428:dependencies/DaisySeedGFX2/cDisplay.h ****     uint16_t                m_Width;        // Width of the layer
 429:dependencies/DaisySeedGFX2/cDisplay.h ****     uint16_t                m_Height;       // Height of the layer
 430:dependencies/DaisySeedGFX2/cDisplay.h ****     uint8_t                 m_Z;            // Z-order of the layer
 431:dependencies/DaisySeedGFX2/cDisplay.h ****     union {
 432:dependencies/DaisySeedGFX2/cDisplay.h ****         sColor*             m_pLayerFrame;
 433:dependencies/DaisySeedGFX2/cDisplay.h ****         const uint8_t*      m_pImageLayerFrame;
 434:dependencies/DaisySeedGFX2/cDisplay.h ****     };
 435:dependencies/DaisySeedGFX2/cDisplay.h **** };
 436:dependencies/DaisySeedGFX2/cDisplay.h **** 
 437:dependencies/DaisySeedGFX2/cDisplay.h **** //***********************************************************************************
 438:dependencies/DaisySeedGFX2/cDisplay.h **** // cLayer
 439:dependencies/DaisySeedGFX2/cDisplay.h **** //  Manages a graphical layer
 440:dependencies/DaisySeedGFX2/cDisplay.h **** //***********************************************************************************
 441:dependencies/DaisySeedGFX2/cDisplay.h **** class cLayer : public cLayerBase, public cGFX {
 442:dependencies/DaisySeedGFX2/cDisplay.h **** friend cDisplay;
 443:dependencies/DaisySeedGFX2/cDisplay.h **** public:
 444:dependencies/DaisySeedGFX2/cDisplay.h ****     cLayer(){}  // Constructor
 445:dependencies/DaisySeedGFX2/cDisplay.h ****     virtual ~cLayer() {}  // Destructor
  52              		.loc 2 445 13 is_stmt 1 view -0
  53              		.cfi_startproc
  54              		@ args = 0, pretend = 0, frame = 0
  55              		@ frame_needed = 0, uses_anonymous_args = 0
  56              		@ link register save eliminated.
  57              	.LBB1213:
  58              	.LBB1214:
  59              	.LBI1214:
 372:dependencies/DaisySeedGFX2/cDisplay.h **** 
  60              		.loc 2 372 13 view .LVU3
 372:dependencies/DaisySeedGFX2/cDisplay.h **** 
  61              		.loc 2 372 13 is_stmt 0 view .LVU4
  62              	.LBE1214:
  63              	.LBE1213:
  64              		.loc 2 445 24 view .LVU5
  65 0000 7047     		bx	lr
  66              		.cfi_endproc
  67              	.LFE4554:
  69              		.weak	_ZN6DadGFX6cLayerD1Ev
  70              		.thumb_set _ZN6DadGFX6cLayerD1Ev,_ZN6DadGFX6cLayerD2Ev
ARM GAS  C:\Users\Oliver\AppData\Local\Temp\ccdKDjJp.s 			page 10


  71              		.section	.text._ZN6DadGFX11cImageLayerD2Ev,"axG",%progbits,_ZN6DadGFX11cImageLayerD5Ev,comdat
  72              		.align	1
  73              		.weak	_ZN6DadGFX11cImageLayerD2Ev
  74              		.syntax unified
  75              		.thumb
  76              		.thumb_func
  78              	_ZN6DadGFX11cImageLayerD2Ev:
  79              	.LVL2:
  80              	.LFB4562:
 446:dependencies/DaisySeedGFX2/cDisplay.h ****    
 447:dependencies/DaisySeedGFX2/cDisplay.h ****     // -----------------------------------------------------------------------------
 448:dependencies/DaisySeedGFX2/cDisplay.h ****     // Erase the layer
 449:dependencies/DaisySeedGFX2/cDisplay.h ****     virtual DAD_GFX_ERROR eraseLayer(const sColor& Color = sColor(0,0,0,0));
 450:dependencies/DaisySeedGFX2/cDisplay.h **** 
 451:dependencies/DaisySeedGFX2/cDisplay.h ****     // -----------------------------------------------------------------------------
 452:dependencies/DaisySeedGFX2/cDisplay.h ****     // Set the layer write mode
 453:dependencies/DaisySeedGFX2/cDisplay.h ****     inline void setMode(DRAW_MODE Mode){
 454:dependencies/DaisySeedGFX2/cDisplay.h ****         m_Mode = Mode;    
 455:dependencies/DaisySeedGFX2/cDisplay.h ****     }
 456:dependencies/DaisySeedGFX2/cDisplay.h **** 
 457:dependencies/DaisySeedGFX2/cDisplay.h **** protected :
 458:dependencies/DaisySeedGFX2/cDisplay.h ****     // --------------------------------------------------------------------------
 459:dependencies/DaisySeedGFX2/cDisplay.h ****     // Initialize the layer with display, DMA2D handler, frame buffer, dimensions, and Z position
 460:dependencies/DaisySeedGFX2/cDisplay.h ****     void init(cDisplay* pDisplay, sColor* pLayerFrame, uint16_t y, uint16_t x, uint16_t Width, uint
 461:dependencies/DaisySeedGFX2/cDisplay.h **** 
 462:dependencies/DaisySeedGFX2/cDisplay.h ****     // --------------------------------------------------------------------------
 463:dependencies/DaisySeedGFX2/cDisplay.h ****     // Set a pixel in the layer at (x, y) to the specified color
 464:dependencies/DaisySeedGFX2/cDisplay.h ****     virtual DAD_GFX_ERROR setPixel(uint16_t x, uint16_t y, const sColor& Color);
 465:dependencies/DaisySeedGFX2/cDisplay.h **** 
 466:dependencies/DaisySeedGFX2/cDisplay.h ****     // --------------------------------------------------------------------------
 467:dependencies/DaisySeedGFX2/cDisplay.h ****     // Draw a rectangle in the layer starting at (x, y) with specified width, height, and color
 468:dependencies/DaisySeedGFX2/cDisplay.h ****     virtual DAD_GFX_ERROR setRectangle(uint16_t x, uint16_t y, uint16_t Width, uint16_t Height, con
 469:dependencies/DaisySeedGFX2/cDisplay.h **** 
 470:dependencies/DaisySeedGFX2/cDisplay.h ****     // -----------------------------------------------------------------------------
 471:dependencies/DaisySeedGFX2/cDisplay.h ****     // Fill a rectangle with either a foreground or background color based on a bitmap
 472:dependencies/DaisySeedGFX2/cDisplay.h ****     virtual DAD_GFX_ERROR fillRectWithBitmap(uint16_t x0, uint16_t y0, const uint8_t* pBitmap, uint
 473:dependencies/DaisySeedGFX2/cDisplay.h ****                                              const sColor& ForegroundColor, const sColor& Backgroun
 474:dependencies/DaisySeedGFX2/cDisplay.h **** 
 475:dependencies/DaisySeedGFX2/cDisplay.h **** protected :
 476:dependencies/DaisySeedGFX2/cDisplay.h ****     DRAW_MODE   m_Mode = DRAW_MODE::Blend;
 477:dependencies/DaisySeedGFX2/cDisplay.h **** };
 478:dependencies/DaisySeedGFX2/cDisplay.h **** 
 479:dependencies/DaisySeedGFX2/cDisplay.h **** //***********************************************************************************
 480:dependencies/DaisySeedGFX2/cDisplay.h **** // cImageLayer
 481:dependencies/DaisySeedGFX2/cDisplay.h **** //  Manages a graphical layer
 482:dependencies/DaisySeedGFX2/cDisplay.h **** //***********************************************************************************
 483:dependencies/DaisySeedGFX2/cDisplay.h **** class cImageLayer : public cLayerBase {
 484:dependencies/DaisySeedGFX2/cDisplay.h **** friend cDisplay;
 485:dependencies/DaisySeedGFX2/cDisplay.h **** public:
 486:dependencies/DaisySeedGFX2/cDisplay.h ****     cImageLayer(){}  // Constructor
 487:dependencies/DaisySeedGFX2/cDisplay.h ****     virtual ~cImageLayer() {}  // Destructor
  81              		.loc 2 487 13 is_stmt 1 view -0
  82              		.cfi_startproc
  83              		@ args = 0, pretend = 0, frame = 0
  84              		@ frame_needed = 0, uses_anonymous_args = 0
  85              		@ link register save eliminated.
  86              	.LBB1215:
ARM GAS  C:\Users\Oliver\AppData\Local\Temp\ccdKDjJp.s 			page 11


  87              	.LBB1216:
  88              	.LBI1216:
 372:dependencies/DaisySeedGFX2/cDisplay.h **** 
  89              		.loc 2 372 13 view .LVU7
 372:dependencies/DaisySeedGFX2/cDisplay.h **** 
  90              		.loc 2 372 13 is_stmt 0 view .LVU8
  91              	.LBE1216:
  92              	.LBE1215:
  93              		.loc 2 487 29 view .LVU9
  94 0000 7047     		bx	lr
  95              		.cfi_endproc
  96              	.LFE4562:
  98              		.weak	_ZN6DadGFX11cImageLayerD1Ev
  99              		.thumb_set _ZN6DadGFX11cImageLayerD1Ev,_ZN6DadGFX11cImageLayerD2Ev
 100              		.section	.text._ZN6DadGFX6cLayer8setPixelEttRKNS_6sColorE,"ax",%progbits
 101              		.align	1
 102              		.global	_ZN6DadGFX6cLayer8setPixelEttRKNS_6sColorE
 103              		.syntax unified
 104              		.thumb
 105              		.thumb_func
 107              	_ZN6DadGFX6cLayer8setPixelEttRKNS_6sColorE:
 108              	.LVL3:
 109              	.LFB4569:
   1:dependencies/DaisySeedGFX2/cDisplay.cpp **** //====================================================================================
   2:dependencies/DaisySeedGFX2/cDisplay.cpp **** // cDisplay
   3:dependencies/DaisySeedGFX2/cDisplay.cpp **** //  Management of an SPI-based display on an STM32 processor
   4:dependencies/DaisySeedGFX2/cDisplay.cpp **** //  Features:
   5:dependencies/DaisySeedGFX2/cDisplay.cpp **** //  - Transfers only modified blocks to optimize performance
   6:dependencies/DaisySeedGFX2/cDisplay.cpp **** //  - Uses a framebuffer and multiple layers for rendering
   7:dependencies/DaisySeedGFX2/cDisplay.cpp **** //  
   8:dependencies/DaisySeedGFX2/cDisplay.cpp **** // Copyright (c) 2025 Dad Design.
   9:dependencies/DaisySeedGFX2/cDisplay.cpp **** //====================================================================================
  10:dependencies/DaisySeedGFX2/cDisplay.cpp **** #include "cDisplay.h"
  11:dependencies/DaisySeedGFX2/cDisplay.cpp **** 
  12:dependencies/DaisySeedGFX2/cDisplay.cpp **** namespace DadGFX {  
  13:dependencies/DaisySeedGFX2/cDisplay.cpp **** 
  14:dependencies/DaisySeedGFX2/cDisplay.cpp **** //***********************************************************************************
  15:dependencies/DaisySeedGFX2/cDisplay.cpp **** // cImageLayer
  16:dependencies/DaisySeedGFX2/cDisplay.cpp **** //  Manages a graphical layer
  17:dependencies/DaisySeedGFX2/cDisplay.cpp **** //***********************************************************************************
  18:dependencies/DaisySeedGFX2/cDisplay.cpp **** 
  19:dependencies/DaisySeedGFX2/cDisplay.cpp **** // --------------------------------------------------------------------------
  20:dependencies/DaisySeedGFX2/cDisplay.cpp **** // Initialize the layer with display, frame buffer, dimensions, and Z position
  21:dependencies/DaisySeedGFX2/cDisplay.cpp **** void cImageLayer::init(cDisplay* pDisplay, const uint8_t* pLayerFrame, uint16_t y, uint16_t x, uint
  22:dependencies/DaisySeedGFX2/cDisplay.cpp ****     m_pDisplay = pDisplay;            // Pointer to display object
  23:dependencies/DaisySeedGFX2/cDisplay.cpp ****     m_Width = Width;                  // Layer width
  24:dependencies/DaisySeedGFX2/cDisplay.cpp ****     m_Height = Height;                // Layer height
  25:dependencies/DaisySeedGFX2/cDisplay.cpp ****     m_X = x;                          // X position of layer
  26:dependencies/DaisySeedGFX2/cDisplay.cpp ****     m_Y = y;                          // Y position of layer
  27:dependencies/DaisySeedGFX2/cDisplay.cpp ****     m_Z = zPos;                       // Z order of layer
  28:dependencies/DaisySeedGFX2/cDisplay.cpp ****     m_NbFrame = NbFrame;
  29:dependencies/DaisySeedGFX2/cDisplay.cpp ****     m_FrameSize = m_Width * m_Height * 4;
  30:dependencies/DaisySeedGFX2/cDisplay.cpp ****     m_pImageLayerFrame = pLayerFrame;
  31:dependencies/DaisySeedGFX2/cDisplay.cpp ****     m_pLayerFrameStart = pLayerFrame;
  32:dependencies/DaisySeedGFX2/cDisplay.cpp **** }
  33:dependencies/DaisySeedGFX2/cDisplay.cpp **** 
  34:dependencies/DaisySeedGFX2/cDisplay.cpp **** //***********************************************************************************
ARM GAS  C:\Users\Oliver\AppData\Local\Temp\ccdKDjJp.s 			page 12


  35:dependencies/DaisySeedGFX2/cDisplay.cpp **** // cLayer
  36:dependencies/DaisySeedGFX2/cDisplay.cpp **** //  Manages a graphical layer
  37:dependencies/DaisySeedGFX2/cDisplay.cpp **** //***********************************************************************************
  38:dependencies/DaisySeedGFX2/cDisplay.cpp **** 
  39:dependencies/DaisySeedGFX2/cDisplay.cpp **** // --------------------------------------------------------------------------
  40:dependencies/DaisySeedGFX2/cDisplay.cpp **** // Initialize the layer with display, frame buffer, dimensions, and Z position
  41:dependencies/DaisySeedGFX2/cDisplay.cpp **** void cLayer::init(cDisplay* pDisplay, sColor* pLayerFrame, uint16_t y, uint16_t x, uint16_t Width, 
  42:dependencies/DaisySeedGFX2/cDisplay.cpp ****     m_pDisplay = pDisplay;            // Pointer to display object
  43:dependencies/DaisySeedGFX2/cDisplay.cpp ****     m_pLayerFrame = pLayerFrame;      // Pointer to layer's ARGB frame buffer
  44:dependencies/DaisySeedGFX2/cDisplay.cpp ****     m_Width = Width;                  // Layer width
  45:dependencies/DaisySeedGFX2/cDisplay.cpp ****     m_Height = Height;                // Layer height
  46:dependencies/DaisySeedGFX2/cDisplay.cpp ****     m_X = x;                          // X position of layer
  47:dependencies/DaisySeedGFX2/cDisplay.cpp ****     m_Y = y;                          // Y position of layer
  48:dependencies/DaisySeedGFX2/cDisplay.cpp ****     m_Z = zPos;                       // Z order of layer
  49:dependencies/DaisySeedGFX2/cDisplay.cpp ****     memset((void *)pLayerFrame, 0, sizeof(sColor[Width*Height]));
  50:dependencies/DaisySeedGFX2/cDisplay.cpp **** }
  51:dependencies/DaisySeedGFX2/cDisplay.cpp **** 
  52:dependencies/DaisySeedGFX2/cDisplay.cpp **** // --------------------------------------------------------------------------
  53:dependencies/DaisySeedGFX2/cDisplay.cpp **** // Draw a rectangle in the layer starting at (x, y) with specified width, height, and color
  54:dependencies/DaisySeedGFX2/cDisplay.cpp **** DAD_GFX_ERROR cLayer::setRectangle(uint16_t x, uint16_t y, uint16_t Width, uint16_t Height, const s
  55:dependencies/DaisySeedGFX2/cDisplay.cpp ****     // ----------------------------------------------------------------------
  56:dependencies/DaisySeedGFX2/cDisplay.cpp ****     // Check bounds and validity of frame buffer
  57:dependencies/DaisySeedGFX2/cDisplay.cpp ****     if (!m_pLayerFrame || x >= m_Width || y >= m_Height) {
  58:dependencies/DaisySeedGFX2/cDisplay.cpp ****         return DAD_GFX_ERROR::Size_Error;  // Return error if frame buffer is invalid or rectangle 
  59:dependencies/DaisySeedGFX2/cDisplay.cpp ****     }
  60:dependencies/DaisySeedGFX2/cDisplay.cpp **** 
  61:dependencies/DaisySeedGFX2/cDisplay.cpp ****     // Adjust width and height if rectangle exceeds boundaries
  62:dependencies/DaisySeedGFX2/cDisplay.cpp ****     if (x + Width > m_Width) {
  63:dependencies/DaisySeedGFX2/cDisplay.cpp ****         Width = m_Width - x;
  64:dependencies/DaisySeedGFX2/cDisplay.cpp ****     }
  65:dependencies/DaisySeedGFX2/cDisplay.cpp ****     if (y + Height > m_Height) {
  66:dependencies/DaisySeedGFX2/cDisplay.cpp ****         Height = m_Height - y;
  67:dependencies/DaisySeedGFX2/cDisplay.cpp ****     }
  68:dependencies/DaisySeedGFX2/cDisplay.cpp **** 
  69:dependencies/DaisySeedGFX2/cDisplay.cpp ****     // If the alpha component is zero, rectangle is fully transparent, nothing to draw
  70:dependencies/DaisySeedGFX2/cDisplay.cpp ****     if ((Color.m_A == 0) &&  (m_Mode == DRAW_MODE::Blend)) {
  71:dependencies/DaisySeedGFX2/cDisplay.cpp ****         return DAD_GFX_ERROR::OK;  // Operation successful but no modification
  72:dependencies/DaisySeedGFX2/cDisplay.cpp ****     }
  73:dependencies/DaisySeedGFX2/cDisplay.cpp **** 
  74:dependencies/DaisySeedGFX2/cDisplay.cpp ****     // ----------------------------------------------------------------------
  75:dependencies/DaisySeedGFX2/cDisplay.cpp ****     // Draw rectangle pixel by pixel
  76:dependencies/DaisySeedGFX2/cDisplay.cpp ****     sColor* pFrame;  // Pointer to current frame buffer pixel
  77:dependencies/DaisySeedGFX2/cDisplay.cpp **** 
  78:dependencies/DaisySeedGFX2/cDisplay.cpp ****     for (uint16_t indexY = 0; indexY < Height; indexY++) {
  79:dependencies/DaisySeedGFX2/cDisplay.cpp ****         // Calculate starting address of the row in the frame buffer
  80:dependencies/DaisySeedGFX2/cDisplay.cpp ****         pFrame = &m_pLayerFrame[((y + indexY) * m_Width) + x];
  81:dependencies/DaisySeedGFX2/cDisplay.cpp **** 
  82:dependencies/DaisySeedGFX2/cDisplay.cpp ****         for (uint16_t indexX = 0; indexX < Width; indexX++) {
  83:dependencies/DaisySeedGFX2/cDisplay.cpp ****             if ((Color.m_A == 255) | (m_Mode == DRAW_MODE::Overwrite)) {
  84:dependencies/DaisySeedGFX2/cDisplay.cpp ****                 // Fully opaque color: overwrite the pixel
  85:dependencies/DaisySeedGFX2/cDisplay.cpp ****                 pFrame->m_ARGB = Color.m_ARGB;
  86:dependencies/DaisySeedGFX2/cDisplay.cpp ****             } else {
  87:dependencies/DaisySeedGFX2/cDisplay.cpp ****                 // Alpha blending for semi-transparent colors
  88:dependencies/DaisySeedGFX2/cDisplay.cpp ****                 sColor Pixel;
  89:dependencies/DaisySeedGFX2/cDisplay.cpp ****                 Pixel.m_ARGB = pFrame->m_ARGB;  // Get current pixel color
  90:dependencies/DaisySeedGFX2/cDisplay.cpp **** 
  91:dependencies/DaisySeedGFX2/cDisplay.cpp ****                 // Normalize alpha values to [0, 1]
ARM GAS  C:\Users\Oliver\AppData\Local\Temp\ccdKDjJp.s 			page 13


  92:dependencies/DaisySeedGFX2/cDisplay.cpp ****                 float alpha2 = pFrame->m_A / 255.0f;  // Existing pixel alpha
  93:dependencies/DaisySeedGFX2/cDisplay.cpp ****                 float alpha1 = Color.m_A / 255.0f;    // New color alpha
  94:dependencies/DaisySeedGFX2/cDisplay.cpp **** 
  95:dependencies/DaisySeedGFX2/cDisplay.cpp ****                 // Compute the blended alpha value
  96:dependencies/DaisySeedGFX2/cDisplay.cpp ****                 float outAlpha = alpha1 + alpha2 * (1 - alpha1);
  97:dependencies/DaisySeedGFX2/cDisplay.cpp **** 
  98:dependencies/DaisySeedGFX2/cDisplay.cpp ****                 // Perform per-channel blending
  99:dependencies/DaisySeedGFX2/cDisplay.cpp ****                 Pixel.m_R = static_cast<uint8_t>((Color.m_R * alpha1 + Pixel.m_R * alpha2 * (1 - al
 100:dependencies/DaisySeedGFX2/cDisplay.cpp ****                 Pixel.m_G = static_cast<uint8_t>((Color.m_G * alpha1 + Pixel.m_G * alpha2 * (1 - al
 101:dependencies/DaisySeedGFX2/cDisplay.cpp ****                 Pixel.m_B = static_cast<uint8_t>((Color.m_B * alpha1 + Pixel.m_B * alpha2 * (1 - al
 102:dependencies/DaisySeedGFX2/cDisplay.cpp **** 
 103:dependencies/DaisySeedGFX2/cDisplay.cpp ****                 // Update alpha channel
 104:dependencies/DaisySeedGFX2/cDisplay.cpp ****                 Pixel.m_A = static_cast<uint8_t>(outAlpha * 255);
 105:dependencies/DaisySeedGFX2/cDisplay.cpp **** 
 106:dependencies/DaisySeedGFX2/cDisplay.cpp ****                 // Write blended color back to the frame buffer
 107:dependencies/DaisySeedGFX2/cDisplay.cpp ****                 pFrame->m_ARGB = Pixel.m_ARGB;
 108:dependencies/DaisySeedGFX2/cDisplay.cpp ****             }
 109:dependencies/DaisySeedGFX2/cDisplay.cpp **** 
 110:dependencies/DaisySeedGFX2/cDisplay.cpp ****             // Move to the next pixel in the row
 111:dependencies/DaisySeedGFX2/cDisplay.cpp ****             pFrame++;
 112:dependencies/DaisySeedGFX2/cDisplay.cpp ****         }
 113:dependencies/DaisySeedGFX2/cDisplay.cpp ****     }
 114:dependencies/DaisySeedGFX2/cDisplay.cpp **** 
 115:dependencies/DaisySeedGFX2/cDisplay.cpp ****     // ----------------------------------------------------------------------
 116:dependencies/DaisySeedGFX2/cDisplay.cpp ****     // Invalidate the modified screen zone
 117:dependencies/DaisySeedGFX2/cDisplay.cpp ****     // Notify the display system of the updated region for redraw
 118:dependencies/DaisySeedGFX2/cDisplay.cpp ****     m_pDisplay->invalidateRect(m_X + x, m_Y + y, m_X + x + Width - 1, m_Y + y + Height - 1);
 119:dependencies/DaisySeedGFX2/cDisplay.cpp **** 
 120:dependencies/DaisySeedGFX2/cDisplay.cpp ****     // Operation successful
 121:dependencies/DaisySeedGFX2/cDisplay.cpp ****     return DAD_GFX_ERROR::OK;
 122:dependencies/DaisySeedGFX2/cDisplay.cpp **** }
 123:dependencies/DaisySeedGFX2/cDisplay.cpp **** 
 124:dependencies/DaisySeedGFX2/cDisplay.cpp **** // --------------------------------------------------------------------------
 125:dependencies/DaisySeedGFX2/cDisplay.cpp **** // Set a pixel in the layer at (x, y) to the specified color
 126:dependencies/DaisySeedGFX2/cDisplay.cpp **** DAD_GFX_ERROR cLayer::setPixel(uint16_t x, uint16_t y, const sColor& Color) {
 110              		.loc 1 126 77 is_stmt 1 view -0
 111              		.cfi_startproc
 112              		@ args = 0, pretend = 0, frame = 0
 113              		@ frame_needed = 0, uses_anonymous_args = 0
 127:dependencies/DaisySeedGFX2/cDisplay.cpp ****     // ----------------------------------------------------------------------
 128:dependencies/DaisySeedGFX2/cDisplay.cpp ****     // Check bounds and validity of frame buffer
 129:dependencies/DaisySeedGFX2/cDisplay.cpp ****     if (x >= m_Width || y >= m_Height || !m_pLayerFrame) {
 114              		.loc 1 129 5 view .LVU11
 126:dependencies/DaisySeedGFX2/cDisplay.cpp ****     // ----------------------------------------------------------------------
 115              		.loc 1 126 77 is_stmt 0 view .LVU12
 116 0000 F0B5     		push	{r4, r5, r6, r7, lr}
 117              		.cfi_def_cfa_offset 20
 118              		.cfi_offset 4, -20
 119              		.cfi_offset 5, -16
 120              		.cfi_offset 6, -12
 121              		.cfi_offset 7, -8
 122              		.cfi_offset 14, -4
 123              		.loc 1 129 14 view .LVU13
 124 0002 8589     		ldrh	r5, [r0, #12]
 126:dependencies/DaisySeedGFX2/cDisplay.cpp ****     // ----------------------------------------------------------------------
 125              		.loc 1 126 77 view .LVU14
 126 0004 9446     		mov	ip, r2
ARM GAS  C:\Users\Oliver\AppData\Local\Temp\ccdKDjJp.s 			page 14


 127              		.loc 1 129 5 view .LVU15
 128 0006 8D42     		cmp	r5, r1
 129 0008 40F29E80 		bls	.L13
 130              		.loc 1 129 22 discriminator 1 view .LVU16
 131 000c C489     		ldrh	r4, [r0, #14]
 132 000e 9442     		cmp	r4, r2
 133 0010 40F29A80 		bls	.L13
 134              		.loc 1 129 43 discriminator 2 view .LVU17
 135 0014 4769     		ldr	r7, [r0, #20]
 136              		.loc 1 129 39 discriminator 2 view .LVU18
 137 0016 002F     		cmp	r7, #0
 138 0018 00F09680 		beq	.L13
 130:dependencies/DaisySeedGFX2/cDisplay.cpp ****         return DAD_GFX_ERROR::Size_Error;  // Out of bounds or frame buffer is invalid
 131:dependencies/DaisySeedGFX2/cDisplay.cpp ****     }
 132:dependencies/DaisySeedGFX2/cDisplay.cpp **** 
 133:dependencies/DaisySeedGFX2/cDisplay.cpp ****     // ----------------------------------------------------------------------
 134:dependencies/DaisySeedGFX2/cDisplay.cpp ****     // Update the pixel color in the frame buffer
 135:dependencies/DaisySeedGFX2/cDisplay.cpp ****     sColor* pFrame = &m_pLayerFrame[(y * m_Width) + x];  // Calculate the address of the pixel
 139              		.loc 1 135 5 is_stmt 1 view .LVU19
 140              	.LBB1224:
 136:dependencies/DaisySeedGFX2/cDisplay.cpp **** 
 137:dependencies/DaisySeedGFX2/cDisplay.cpp ****     if ((Color.m_A == 0) && (m_Mode == DRAW_MODE::Blend)) {
 141              		.loc 1 137 16 is_stmt 0 view .LVU20
 142 001c DE78     		ldrb	r6, [r3, #3]	@ zero_extendqisi2
 143              	.LBE1224:
 135:dependencies/DaisySeedGFX2/cDisplay.cpp **** 
 144              		.loc 1 135 51 view .LVU21
 145 001e 05FB0215 		mla	r5, r5, r2, r1
 146              	.LVL4:
 147              		.loc 1 137 5 is_stmt 1 view .LVU22
 148              	.LBB1229:
 149              		.loc 1 137 30 is_stmt 0 discriminator 1 view .LVU23
 150 0022 C46A     		ldr	r4, [r0, #44]
 151              		.loc 1 137 5 view .LVU24
 152 0024 16B9     		cbnz	r6, .L6
 153              		.loc 1 137 26 discriminator 1 view .LVU25
 154 0026 0CB9     		cbnz	r4, .L6
 155              	.LVL5:
 156              	.L10:
 138:dependencies/DaisySeedGFX2/cDisplay.cpp ****         // Fully transparent color, nothing to update
 139:dependencies/DaisySeedGFX2/cDisplay.cpp ****         return DAD_GFX_ERROR::OK;
 157              		.loc 1 139 31 view .LVU26
 158 0028 0020     		movs	r0, #0
 159              	.LVL6:
 160              	.L4:
 161              		.loc 1 139 31 view .LVU27
 162              	.LBE1229:
 140:dependencies/DaisySeedGFX2/cDisplay.cpp ****     } else if ((Color.m_A == 255) | (m_Mode == DRAW_MODE::Overwrite)) {
 141:dependencies/DaisySeedGFX2/cDisplay.cpp ****         // Fully opaque color, directly overwrite the pixel
 142:dependencies/DaisySeedGFX2/cDisplay.cpp ****         pFrame->m_ARGB = Color.m_ARGB;
 143:dependencies/DaisySeedGFX2/cDisplay.cpp ****     } else {
 144:dependencies/DaisySeedGFX2/cDisplay.cpp ****         // Semi-transparent color, apply alpha blending
 145:dependencies/DaisySeedGFX2/cDisplay.cpp ****         sColor Pixel;
 146:dependencies/DaisySeedGFX2/cDisplay.cpp ****         Pixel.m_ARGB = pFrame->m_ARGB;  // Get the current pixel color
 147:dependencies/DaisySeedGFX2/cDisplay.cpp **** 
 148:dependencies/DaisySeedGFX2/cDisplay.cpp ****         // Normalize alpha values to [0, 1]
 149:dependencies/DaisySeedGFX2/cDisplay.cpp ****         float alpha2 = Pixel.m_A / 255.0f;  // Existing pixel alpha
ARM GAS  C:\Users\Oliver\AppData\Local\Temp\ccdKDjJp.s 			page 15


 150:dependencies/DaisySeedGFX2/cDisplay.cpp ****         float alpha1 = Color.m_A / 255.0f;  // New color alpha
 151:dependencies/DaisySeedGFX2/cDisplay.cpp **** 
 152:dependencies/DaisySeedGFX2/cDisplay.cpp ****         // Compute the blended alpha value
 153:dependencies/DaisySeedGFX2/cDisplay.cpp ****         float outAlpha = alpha1 + alpha2 * (1 - alpha1);
 154:dependencies/DaisySeedGFX2/cDisplay.cpp **** 
 155:dependencies/DaisySeedGFX2/cDisplay.cpp ****         // Perform per-channel blending
 156:dependencies/DaisySeedGFX2/cDisplay.cpp ****         Pixel.m_R = static_cast<uint8_t>((Color.m_R * alpha1 + Pixel.m_R * alpha2 * (1 - alpha1)) /
 157:dependencies/DaisySeedGFX2/cDisplay.cpp ****         Pixel.m_G = static_cast<uint8_t>((Color.m_G * alpha1 + Pixel.m_G * alpha2 * (1 - alpha1)) /
 158:dependencies/DaisySeedGFX2/cDisplay.cpp ****         Pixel.m_B = static_cast<uint8_t>((Color.m_B * alpha1 + Pixel.m_B * alpha2 * (1 - alpha1)) /
 159:dependencies/DaisySeedGFX2/cDisplay.cpp **** 
 160:dependencies/DaisySeedGFX2/cDisplay.cpp ****         // Update the alpha channel
 161:dependencies/DaisySeedGFX2/cDisplay.cpp ****         Pixel.m_A = static_cast<uint8_t>(outAlpha * 255);
 162:dependencies/DaisySeedGFX2/cDisplay.cpp **** 
 163:dependencies/DaisySeedGFX2/cDisplay.cpp ****         // Write the blended color back to the frame buffer
 164:dependencies/DaisySeedGFX2/cDisplay.cpp ****         pFrame->m_ARGB = Pixel.m_ARGB;
 165:dependencies/DaisySeedGFX2/cDisplay.cpp ****     }
 166:dependencies/DaisySeedGFX2/cDisplay.cpp **** 
 167:dependencies/DaisySeedGFX2/cDisplay.cpp ****     // ----------------------------------------------------------------------
 168:dependencies/DaisySeedGFX2/cDisplay.cpp ****     // Invalidate the point to trigger a redraw in the display
 169:dependencies/DaisySeedGFX2/cDisplay.cpp ****     m_pDisplay->invalidatePoint(x + m_X, y + m_Y);
 170:dependencies/DaisySeedGFX2/cDisplay.cpp **** 
 171:dependencies/DaisySeedGFX2/cDisplay.cpp ****     return DAD_GFX_ERROR::OK;  // Operation successful
 172:dependencies/DaisySeedGFX2/cDisplay.cpp **** }
 163              		.loc 1 172 1 view .LVU28
 164 002a F0BD     		pop	{r4, r5, r6, r7, pc}
 165              	.LVL7:
 166              	.L6:
 140:dependencies/DaisySeedGFX2/cDisplay.cpp ****     } else if ((Color.m_A == 255) | (m_Mode == DRAW_MODE::Overwrite)) {
 167              		.loc 1 140 12 is_stmt 1 view .LVU29
 168              	.LBB1230:
 169              	.LBB1225:
 170 002c FF2E     		cmp	r6, #255
 171 002e 01D0     		beq	.L14
 172 0030 012C     		cmp	r4, #1
 173 0032 1AD1     		bne	.L7
 174              	.L14:
 142:dependencies/DaisySeedGFX2/cDisplay.cpp ****     } else {
 175              		.loc 1 142 9 view .LVU30
 142:dependencies/DaisySeedGFX2/cDisplay.cpp ****     } else {
 176              		.loc 1 142 32 is_stmt 0 view .LVU31
 177 0034 1B68     		ldr	r3, [r3]
 178              	.LVL8:
 142:dependencies/DaisySeedGFX2/cDisplay.cpp ****     } else {
 179              		.loc 1 142 24 view .LVU32
 180 0036 47F82530 		str	r3, [r7, r5, lsl #2]
 181              	.LVL9:
 182              	.L9:
 142:dependencies/DaisySeedGFX2/cDisplay.cpp ****     } else {
 183              		.loc 1 142 24 view .LVU33
 184              	.LBE1225:
 185              	.LBE1230:
 169:dependencies/DaisySeedGFX2/cDisplay.cpp **** 
 186              		.loc 1 169 5 is_stmt 1 view .LVU34
 169:dependencies/DaisySeedGFX2/cDisplay.cpp **** 
 187              		.loc 1 169 32 is_stmt 0 view .LVU35
 188 003a 0489     		ldrh	r4, [r0, #8]
 169:dependencies/DaisySeedGFX2/cDisplay.cpp **** 
ARM GAS  C:\Users\Oliver\AppData\Local\Temp\ccdKDjJp.s 			page 16


 189              		.loc 1 169 5 view .LVU36
 190 003c 4368     		ldr	r3, [r0, #4]
 191              	.LVL10:
 192              	.LBB1231:
 193              	.LBI1231:
 271:dependencies/DaisySeedGFX2/cDisplay.h ****         m_DirtyBlocks[x0 / m_DitryBlocWidth][y0 / m_DitryBlocHeight] = 1;
 194              		.loc 2 271 17 is_stmt 1 view .LVU37
 195              	.LBB1232:
 272:dependencies/DaisySeedGFX2/cDisplay.h ****     }
 196              		.loc 2 272 9 view .LVU38
 197              	.LBE1232:
 198              	.LBE1231:
 169:dependencies/DaisySeedGFX2/cDisplay.cpp **** 
 199              		.loc 1 169 32 is_stmt 0 view .LVU39
 200 003e 2144     		add	r1, r1, r4
 201              	.LVL11:
 169:dependencies/DaisySeedGFX2/cDisplay.cpp **** 
 202              		.loc 1 169 32 view .LVU40
 203 0040 4089     		ldrh	r0, [r0, #10]
 204              	.LVL12:
 205              	.LBB1236:
 206              	.LBB1233:
 272:dependencies/DaisySeedGFX2/cDisplay.h ****     }
 207              		.loc 2 272 28 view .LVU41
 208 0042 93F8D040 		ldrb	r4, [r3, #208]	@ zero_extendqisi2
 209              	.LVL13:
 272:dependencies/DaisySeedGFX2/cDisplay.h ****     }
 210              		.loc 2 272 28 view .LVU42
 211              	.LBE1233:
 212              	.LBE1236:
 169:dependencies/DaisySeedGFX2/cDisplay.cpp **** 
 213              		.loc 1 169 32 view .LVU43
 214 0046 0CEB0002 		add	r2, ip, r0
 215              	.LBB1237:
 216              	.LBB1234:
 272:dependencies/DaisySeedGFX2/cDisplay.h ****     }
 217              		.loc 2 272 23 view .LVU44
 218 004a 89B2     		uxth	r1, r1
 272:dependencies/DaisySeedGFX2/cDisplay.h ****     }
 219              		.loc 2 272 51 view .LVU45
 220 004c 93F8D100 		ldrb	r0, [r3, #209]	@ zero_extendqisi2
 221              	.LVL14:
 272:dependencies/DaisySeedGFX2/cDisplay.h ****     }
 222              		.loc 2 272 46 view .LVU46
 223 0050 92B2     		uxth	r2, r2
 272:dependencies/DaisySeedGFX2/cDisplay.h ****     }
 224              		.loc 2 272 26 view .LVU47
 225 0052 B1FBF4F1 		udiv	r1, r1, r4
 272:dependencies/DaisySeedGFX2/cDisplay.h ****     }
 226              		.loc 2 272 49 view .LVU48
 227 0056 B2FBF0F2 		udiv	r2, r2, r0
 272:dependencies/DaisySeedGFX2/cDisplay.h ****     }
 228              		.loc 2 272 70 view .LVU49
 229 005a 0A20     		movs	r0, #10
 230 005c 00FB0133 		mla	r3, r0, r1, r3
 231              	.LVL15:
 272:dependencies/DaisySeedGFX2/cDisplay.h ****     }
ARM GAS  C:\Users\Oliver\AppData\Local\Temp\ccdKDjJp.s 			page 17


 232              		.loc 2 272 70 view .LVU50
 233 0060 1344     		add	r3, r3, r2
 234 0062 0122     		movs	r2, #1
 235 0064 83F86C20 		strb	r2, [r3, #108]
 236              	.LVL16:
 272:dependencies/DaisySeedGFX2/cDisplay.h ****     }
 237              		.loc 2 272 70 view .LVU51
 238              	.LBE1234:
 239              	.LBE1237:
 171:dependencies/DaisySeedGFX2/cDisplay.cpp **** }
 240              		.loc 1 171 5 is_stmt 1 view .LVU52
 241              	.LBB1238:
 242              	.LBB1235:
 273:dependencies/DaisySeedGFX2/cDisplay.h **** private :
 243              		.loc 2 273 5 is_stmt 0 view .LVU53
 244 0068 DEE7     		b	.L10
 245              	.LVL17:
 246              	.L7:
 273:dependencies/DaisySeedGFX2/cDisplay.h **** private :
 247              		.loc 2 273 5 view .LVU54
 248              	.LBE1235:
 249              	.LBE1238:
 250              	.LBB1239:
 251              	.LBB1228:
 252              	.LBB1226:
 145:dependencies/DaisySeedGFX2/cDisplay.cpp ****         Pixel.m_ARGB = pFrame->m_ARGB;  // Get the current pixel color
 253              		.loc 1 145 9 is_stmt 1 view .LVU55
 254              	.LBB1227:
 255              	.LBI1227:
 256              		.file 3 "dependencies/DaisySeedGFX2/GFX.h"
   1:dependencies/DaisySeedGFX2/GFX.h **** //====================================================================================
   2:dependencies/DaisySeedGFX2/GFX.h **** // GFX.h
   3:dependencies/DaisySeedGFX2/GFX.h **** //  
   4:dependencies/DaisySeedGFX2/GFX.h **** // Features:
   5:dependencies/DaisySeedGFX2/GFX.h **** //   - Provides a set of graphics drawing utilities for rendering shapes, text, 
   6:dependencies/DaisySeedGFX2/GFX.h **** //     and bitmaps on graphical displays.
   7:dependencies/DaisySeedGFX2/GFX.h **** //   - Abstract base class for graphics operations, to be implemented by derived classes.
   8:dependencies/DaisySeedGFX2/GFX.h **** //
   9:dependencies/DaisySeedGFX2/GFX.h **** // Inspired by:
  10:dependencies/DaisySeedGFX2/GFX.h **** //   - Adafruit-GFX-Library: https://github.com/adafruit/Adafruit-GFX-Library
  11:dependencies/DaisySeedGFX2/GFX.h **** //   - eSPI: https://github.com/Bodmer/TFT_eSPI
  12:dependencies/DaisySeedGFX2/GFX.h **** //
  13:dependencies/DaisySeedGFX2/GFX.h **** // Copyright (c) 2025 Dad Design. All rights reserved.
  14:dependencies/DaisySeedGFX2/GFX.h **** //
  15:dependencies/DaisySeedGFX2/GFX.h **** //====================================================================================
  16:dependencies/DaisySeedGFX2/GFX.h **** 
  17:dependencies/DaisySeedGFX2/GFX.h **** #pragma once // Ensure this file is only included once during compilation
  18:dependencies/DaisySeedGFX2/GFX.h **** #include "stdint.h"
  19:dependencies/DaisySeedGFX2/GFX.h **** #include "GFXFont.h"
  20:dependencies/DaisySeedGFX2/GFX.h **** 
  21:dependencies/DaisySeedGFX2/GFX.h **** 
  22:dependencies/DaisySeedGFX2/GFX.h **** namespace DadGFX {
  23:dependencies/DaisySeedGFX2/GFX.h **** 
  24:dependencies/DaisySeedGFX2/GFX.h **** //***********************************************************************************
  25:dependencies/DaisySeedGFX2/GFX.h **** // Constants
  26:dependencies/DaisySeedGFX2/GFX.h **** //***********************************************************************************
  27:dependencies/DaisySeedGFX2/GFX.h **** constexpr float __PI = 3.14159265358979;   // Value of π
ARM GAS  C:\Users\Oliver\AppData\Local\Temp\ccdKDjJp.s 			page 18


  28:dependencies/DaisySeedGFX2/GFX.h **** constexpr float __PI_2 = 1.57079632679489; // Value of π/2
  29:dependencies/DaisySeedGFX2/GFX.h **** 
  30:dependencies/DaisySeedGFX2/GFX.h **** //***********************************************************************************
  31:dependencies/DaisySeedGFX2/GFX.h **** // Enumerations
  32:dependencies/DaisySeedGFX2/GFX.h **** //***********************************************************************************
  33:dependencies/DaisySeedGFX2/GFX.h **** // --------------------------------------------------------------------------
  34:dependencies/DaisySeedGFX2/GFX.h **** // Error codes for graphics operations
  35:dependencies/DaisySeedGFX2/GFX.h **** enum class DAD_GFX_ERROR {
  36:dependencies/DaisySeedGFX2/GFX.h ****     OK,            // Operation successful
  37:dependencies/DaisySeedGFX2/GFX.h ****     DMA2D_Error,   // Error in DMA2D hardware operation
  38:dependencies/DaisySeedGFX2/GFX.h ****     Size_Error,    // Size exceeds bounds or invalid dimensions
  39:dependencies/DaisySeedGFX2/GFX.h ****     Memory_Error   // Memory allocation or access error
  40:dependencies/DaisySeedGFX2/GFX.h **** };
  41:dependencies/DaisySeedGFX2/GFX.h **** 
  42:dependencies/DaisySeedGFX2/GFX.h **** //***********************************************************************************
  43:dependencies/DaisySeedGFX2/GFX.h **** // sColor 
  44:dependencies/DaisySeedGFX2/GFX.h **** //   Stores a color in the A8R8G8B8 format
  45:dependencies/DaisySeedGFX2/GFX.h **** //***********************************************************************************
  46:dependencies/DaisySeedGFX2/GFX.h **** struct sColor {
  47:dependencies/DaisySeedGFX2/GFX.h ****     union {
  48:dependencies/DaisySeedGFX2/GFX.h ****         struct {
  49:dependencies/DaisySeedGFX2/GFX.h ****             uint8_t m_B;  // BLUE channel (8-bit)
  50:dependencies/DaisySeedGFX2/GFX.h ****             uint8_t m_G;  // GREEN channel (8-bit)
  51:dependencies/DaisySeedGFX2/GFX.h ****             uint8_t m_R;  // RED channel (8-bit)
  52:dependencies/DaisySeedGFX2/GFX.h ****             uint8_t m_A;  // ALPHA channel (8-bit, transparency)
  53:dependencies/DaisySeedGFX2/GFX.h ****         };
  54:dependencies/DaisySeedGFX2/GFX.h ****         uint32_t m_ARGB;  // 32-bit representation of the color
  55:dependencies/DaisySeedGFX2/GFX.h ****     };
  56:dependencies/DaisySeedGFX2/GFX.h **** 
  57:dependencies/DaisySeedGFX2/GFX.h ****     // --------------------------------------------------------------------------
  58:dependencies/DaisySeedGFX2/GFX.h ****     // Constructor
  59:dependencies/DaisySeedGFX2/GFX.h ****     // Initializes the default color
  60:dependencies/DaisySeedGFX2/GFX.h ****     sColor(){}
 257              		.loc 3 60 5 view .LVU56
 258              		.loc 3 60 5 is_stmt 0 view .LVU57
 259              	.LBE1227:
 146:dependencies/DaisySeedGFX2/cDisplay.cpp **** 
 260              		.loc 1 146 9 is_stmt 1 view .LVU58
 146:dependencies/DaisySeedGFX2/cDisplay.cpp **** 
 261              		.loc 1 146 32 is_stmt 0 view .LVU59
 262 006a 57F82540 		ldr	r4, [r7, r5, lsl #2]
 149:dependencies/DaisySeedGFX2/cDisplay.cpp ****         float alpha1 = Color.m_A / 255.0f;  // New color alpha
 263              		.loc 1 149 9 is_stmt 1 view .LVU60
 153:dependencies/DaisySeedGFX2/cDisplay.cpp **** 
 264              		.loc 1 153 47 is_stmt 0 view .LVU61
 265 006e F7EE006A 		vmov.f32	s13, #1.0e+0
 149:dependencies/DaisySeedGFX2/cDisplay.cpp ****         float alpha1 = Color.m_A / 255.0f;  // New color alpha
 266              		.loc 1 149 15 view .LVU62
 267 0072 9FED365A 		vldr.32	s10, .L15
 149:dependencies/DaisySeedGFX2/cDisplay.cpp ****         float alpha1 = Color.m_A / 255.0f;  // New color alpha
 268              		.loc 1 149 30 view .LVU63
 269 0076 220E     		lsrs	r2, r4, #24
 270              	.LVL18:
 149:dependencies/DaisySeedGFX2/cDisplay.cpp ****         float alpha1 = Color.m_A / 255.0f;  // New color alpha
 271              		.loc 1 149 30 view .LVU64
 272 0078 07EE902A 		vmov	s15, r2	@ int
 156:dependencies/DaisySeedGFX2/cDisplay.cpp ****         Pixel.m_G = static_cast<uint8_t>((Color.m_G * alpha1 + Pixel.m_G * alpha2 * (1 - alpha1)) /
ARM GAS  C:\Users\Oliver\AppData\Local\Temp\ccdKDjJp.s 			page 19


 273              		.loc 1 156 49 view .LVU65
 274 007c 9A78     		ldrb	r2, [r3, #2]	@ zero_extendqisi2
 149:dependencies/DaisySeedGFX2/cDisplay.cpp ****         float alpha1 = Color.m_A / 255.0f;  // New color alpha
 275              		.loc 1 149 34 view .LVU66
 276 007e F8EEE77A 		vcvt.f32.s32	s15, s15
 156:dependencies/DaisySeedGFX2/cDisplay.cpp ****         Pixel.m_G = static_cast<uint8_t>((Color.m_G * alpha1 + Pixel.m_G * alpha2 * (1 - alpha1)) /
 277              		.loc 1 156 49 view .LVU67
 278 0082 04EE902A 		vmov	s9, r2	@ int
 156:dependencies/DaisySeedGFX2/cDisplay.cpp ****         Pixel.m_G = static_cast<uint8_t>((Color.m_G * alpha1 + Pixel.m_G * alpha2 * (1 - alpha1)) /
 279              		.loc 1 156 70 view .LVU68
 280 0086 C4F30742 		ubfx	r2, r4, #16, #8
 156:dependencies/DaisySeedGFX2/cDisplay.cpp ****         Pixel.m_G = static_cast<uint8_t>((Color.m_G * alpha1 + Pixel.m_G * alpha2 * (1 - alpha1)) /
 281              		.loc 1 156 53 view .LVU69
 282 008a F8EEE44A 		vcvt.f32.s32	s9, s9
 149:dependencies/DaisySeedGFX2/cDisplay.cpp ****         float alpha1 = Color.m_A / 255.0f;  // New color alpha
 283              		.loc 1 149 15 view .LVU70
 284 008e C7EE855A 		vdiv.f32	s11, s15, s10
 285              	.LVL19:
 150:dependencies/DaisySeedGFX2/cDisplay.cpp **** 
 286              		.loc 1 150 9 is_stmt 1 view .LVU71
 150:dependencies/DaisySeedGFX2/cDisplay.cpp **** 
 287              		.loc 1 150 34 is_stmt 0 view .LVU72
 288 0092 07EE906A 		vmov	s15, r6	@ int
 156:dependencies/DaisySeedGFX2/cDisplay.cpp ****         Pixel.m_G = static_cast<uint8_t>((Color.m_G * alpha1 + Pixel.m_G * alpha2 * (1 - alpha1)) /
 289              		.loc 1 156 19 view .LVU73
 290 0096 0026     		movs	r6, #0
 150:dependencies/DaisySeedGFX2/cDisplay.cpp **** 
 291              		.loc 1 150 34 view .LVU74
 292 0098 F8EEE77A 		vcvt.f32.s32	s15, s15
 150:dependencies/DaisySeedGFX2/cDisplay.cpp **** 
 293              		.loc 1 150 15 view .LVU75
 294 009c 87EE856A 		vdiv.f32	s12, s15, s10
 295              	.LVL20:
 153:dependencies/DaisySeedGFX2/cDisplay.cpp **** 
 296              		.loc 1 153 9 is_stmt 1 view .LVU76
 156:dependencies/DaisySeedGFX2/cDisplay.cpp ****         Pixel.m_G = static_cast<uint8_t>((Color.m_G * alpha1 + Pixel.m_G * alpha2 * (1 - alpha1)) /
 297              		.loc 1 156 70 is_stmt 0 view .LVU77
 298 00a0 07EE902A 		vmov	s15, r2	@ int
 156:dependencies/DaisySeedGFX2/cDisplay.cpp ****         Pixel.m_G = static_cast<uint8_t>((Color.m_G * alpha1 + Pixel.m_G * alpha2 * (1 - alpha1)) /
 299              		.loc 1 156 74 view .LVU78
 300 00a4 F8EEE77A 		vcvt.f32.s32	s15, s15
 301 00a8 67EEA57A 		vmul.f32	s15, s15, s11
 153:dependencies/DaisySeedGFX2/cDisplay.cpp **** 
 302              		.loc 1 153 47 view .LVU79
 303 00ac 76EEC66A 		vsub.f32	s13, s13, s12
 153:dependencies/DaisySeedGFX2/cDisplay.cpp **** 
 304              		.loc 1 153 15 view .LVU80
 305 00b0 B0EE467A 		vmov.f32	s14, s12
 156:dependencies/DaisySeedGFX2/cDisplay.cpp ****         Pixel.m_G = static_cast<uint8_t>((Color.m_G * alpha1 + Pixel.m_G * alpha2 * (1 - alpha1)) /
 306              		.loc 1 156 83 view .LVU81
 307 00b4 67EEA67A 		vmul.f32	s15, s15, s13
 153:dependencies/DaisySeedGFX2/cDisplay.cpp **** 
 308              		.loc 1 153 15 view .LVU82
 309 00b8 A6EEA57A 		vfma.f32	s14, s13, s11
 310              	.LVL21:
 156:dependencies/DaisySeedGFX2/cDisplay.cpp ****         Pixel.m_G = static_cast<uint8_t>((Color.m_G * alpha1 + Pixel.m_G * alpha2 * (1 - alpha1)) /
 311              		.loc 1 156 9 is_stmt 1 view .LVU83
ARM GAS  C:\Users\Oliver\AppData\Local\Temp\ccdKDjJp.s 			page 20


 156:dependencies/DaisySeedGFX2/cDisplay.cpp ****         Pixel.m_G = static_cast<uint8_t>((Color.m_G * alpha1 + Pixel.m_G * alpha2 * (1 - alpha1)) /
 312              		.loc 1 156 62 is_stmt 0 view .LVU84
 313 00bc E4EE867A 		vfma.f32	s15, s9, s12
 156:dependencies/DaisySeedGFX2/cDisplay.cpp ****         Pixel.m_G = static_cast<uint8_t>((Color.m_G * alpha1 + Pixel.m_G * alpha2 * (1 - alpha1)) /
 314              		.loc 1 156 99 view .LVU85
 315 00c0 C7EE874A 		vdiv.f32	s9, s15, s14
 156:dependencies/DaisySeedGFX2/cDisplay.cpp ****         Pixel.m_G = static_cast<uint8_t>((Color.m_G * alpha1 + Pixel.m_G * alpha2 * (1 - alpha1)) /
 316              		.loc 1 156 21 view .LVU86
 317 00c4 FCEEE44A 		vcvt.u32.f32	s9, s9
 156:dependencies/DaisySeedGFX2/cDisplay.cpp ****         Pixel.m_G = static_cast<uint8_t>((Color.m_G * alpha1 + Pixel.m_G * alpha2 * (1 - alpha1)) /
 318              		.loc 1 156 19 view .LVU87
 319 00c8 14EE902A 		vmov	r2, s9	@ int
 320 00cc 62F31746 		bfi	r6, r2, #16, #8
 321              	.LVL22:
 157:dependencies/DaisySeedGFX2/cDisplay.cpp ****         Pixel.m_B = static_cast<uint8_t>((Color.m_B * alpha1 + Pixel.m_B * alpha2 * (1 - alpha1)) /
 322              		.loc 1 157 9 is_stmt 1 view .LVU88
 157:dependencies/DaisySeedGFX2/cDisplay.cpp ****         Pixel.m_B = static_cast<uint8_t>((Color.m_B * alpha1 + Pixel.m_B * alpha2 * (1 - alpha1)) /
 323              		.loc 1 157 49 is_stmt 0 view .LVU89
 324 00d0 5A78     		ldrb	r2, [r3, #1]	@ zero_extendqisi2
 158:dependencies/DaisySeedGFX2/cDisplay.cpp **** 
 325              		.loc 1 158 49 view .LVU90
 326 00d2 1B78     		ldrb	r3, [r3]	@ zero_extendqisi2
 327              	.LVL23:
 157:dependencies/DaisySeedGFX2/cDisplay.cpp ****         Pixel.m_B = static_cast<uint8_t>((Color.m_B * alpha1 + Pixel.m_B * alpha2 * (1 - alpha1)) /
 328              		.loc 1 157 49 view .LVU91
 329 00d4 04EE902A 		vmov	s9, r2	@ int
 157:dependencies/DaisySeedGFX2/cDisplay.cpp ****         Pixel.m_B = static_cast<uint8_t>((Color.m_B * alpha1 + Pixel.m_B * alpha2 * (1 - alpha1)) /
 330              		.loc 1 157 70 view .LVU92
 331 00d8 C4F30722 		ubfx	r2, r4, #8, #8
 332 00dc 07EE902A 		vmov	s15, r2	@ int
 157:dependencies/DaisySeedGFX2/cDisplay.cpp ****         Pixel.m_B = static_cast<uint8_t>((Color.m_B * alpha1 + Pixel.m_B * alpha2 * (1 - alpha1)) /
 333              		.loc 1 157 53 view .LVU93
 334 00e0 F8EEE44A 		vcvt.f32.s32	s9, s9
 157:dependencies/DaisySeedGFX2/cDisplay.cpp ****         Pixel.m_B = static_cast<uint8_t>((Color.m_B * alpha1 + Pixel.m_B * alpha2 * (1 - alpha1)) /
 335              		.loc 1 157 74 view .LVU94
 336 00e4 F8EEE77A 		vcvt.f32.s32	s15, s15
 337 00e8 67EEA57A 		vmul.f32	s15, s15, s11
 157:dependencies/DaisySeedGFX2/cDisplay.cpp ****         Pixel.m_B = static_cast<uint8_t>((Color.m_B * alpha1 + Pixel.m_B * alpha2 * (1 - alpha1)) /
 338              		.loc 1 157 83 view .LVU95
 339 00ec 67EEA67A 		vmul.f32	s15, s15, s13
 157:dependencies/DaisySeedGFX2/cDisplay.cpp ****         Pixel.m_B = static_cast<uint8_t>((Color.m_B * alpha1 + Pixel.m_B * alpha2 * (1 - alpha1)) /
 340              		.loc 1 157 62 view .LVU96
 341 00f0 E4EE867A 		vfma.f32	s15, s9, s12
 157:dependencies/DaisySeedGFX2/cDisplay.cpp ****         Pixel.m_B = static_cast<uint8_t>((Color.m_B * alpha1 + Pixel.m_B * alpha2 * (1 - alpha1)) /
 342              		.loc 1 157 99 view .LVU97
 343 00f4 C7EE874A 		vdiv.f32	s9, s15, s14
 157:dependencies/DaisySeedGFX2/cDisplay.cpp ****         Pixel.m_B = static_cast<uint8_t>((Color.m_B * alpha1 + Pixel.m_B * alpha2 * (1 - alpha1)) /
 344              		.loc 1 157 21 view .LVU98
 345 00f8 FCEEE44A 		vcvt.u32.f32	s9, s9
 157:dependencies/DaisySeedGFX2/cDisplay.cpp ****         Pixel.m_B = static_cast<uint8_t>((Color.m_B * alpha1 + Pixel.m_B * alpha2 * (1 - alpha1)) /
 346              		.loc 1 157 19 view .LVU99
 347 00fc 14EE902A 		vmov	r2, s9	@ int
 158:dependencies/DaisySeedGFX2/cDisplay.cpp **** 
 348              		.loc 1 158 49 view .LVU100
 349 0100 04EE903A 		vmov	s9, r3	@ int
 158:dependencies/DaisySeedGFX2/cDisplay.cpp **** 
 350              		.loc 1 158 70 view .LVU101
ARM GAS  C:\Users\Oliver\AppData\Local\Temp\ccdKDjJp.s 			page 21


 351 0104 E3B2     		uxtb	r3, r4
 158:dependencies/DaisySeedGFX2/cDisplay.cpp **** 
 352              		.loc 1 158 53 view .LVU102
 353 0106 F8EEE44A 		vcvt.f32.s32	s9, s9
 157:dependencies/DaisySeedGFX2/cDisplay.cpp ****         Pixel.m_B = static_cast<uint8_t>((Color.m_B * alpha1 + Pixel.m_B * alpha2 * (1 - alpha1)) /
 354              		.loc 1 157 19 view .LVU103
 355 010a 62F30F26 		bfi	r6, r2, #8, #8
 158:dependencies/DaisySeedGFX2/cDisplay.cpp **** 
 356              		.loc 1 158 9 is_stmt 1 view .LVU104
 158:dependencies/DaisySeedGFX2/cDisplay.cpp **** 
 357              		.loc 1 158 70 is_stmt 0 view .LVU105
 358 010e 07EE903A 		vmov	s15, r3	@ int
 158:dependencies/DaisySeedGFX2/cDisplay.cpp **** 
 359              		.loc 1 158 74 view .LVU106
 360 0112 F8EEE77A 		vcvt.f32.s32	s15, s15
 361 0116 67EEA57A 		vmul.f32	s15, s15, s11
 158:dependencies/DaisySeedGFX2/cDisplay.cpp **** 
 362              		.loc 1 158 83 view .LVU107
 363 011a 67EEA67A 		vmul.f32	s15, s15, s13
 158:dependencies/DaisySeedGFX2/cDisplay.cpp **** 
 364              		.loc 1 158 62 view .LVU108
 365 011e E4EE867A 		vfma.f32	s15, s9, s12
 158:dependencies/DaisySeedGFX2/cDisplay.cpp **** 
 366              		.loc 1 158 99 view .LVU109
 367 0122 C7EE876A 		vdiv.f32	s13, s15, s14
 161:dependencies/DaisySeedGFX2/cDisplay.cpp **** 
 368              		.loc 1 161 51 view .LVU110
 369 0126 27EE057A 		vmul.f32	s14, s14, s10
 370              	.LVL24:
 161:dependencies/DaisySeedGFX2/cDisplay.cpp **** 
 371              		.loc 1 161 21 view .LVU111
 372 012a BCEEC77A 		vcvt.u32.f32	s14, s14
 158:dependencies/DaisySeedGFX2/cDisplay.cpp **** 
 373              		.loc 1 158 21 view .LVU112
 374 012e FCEEE66A 		vcvt.u32.f32	s13, s13
 158:dependencies/DaisySeedGFX2/cDisplay.cpp **** 
 375              		.loc 1 158 19 view .LVU113
 376 0132 16EE903A 		vmov	r3, s13	@ int
 377 0136 63F30706 		bfi	r6, r3, #0, #8
 161:dependencies/DaisySeedGFX2/cDisplay.cpp **** 
 378              		.loc 1 161 9 is_stmt 1 view .LVU114
 161:dependencies/DaisySeedGFX2/cDisplay.cpp **** 
 379              		.loc 1 161 19 is_stmt 0 view .LVU115
 380 013a 17EE103A 		vmov	r3, s14	@ int
 381 013e 63F31F66 		bfi	r6, r3, #24, #8
 164:dependencies/DaisySeedGFX2/cDisplay.cpp ****     }
 382              		.loc 1 164 9 is_stmt 1 view .LVU116
 164:dependencies/DaisySeedGFX2/cDisplay.cpp ****     }
 383              		.loc 1 164 24 is_stmt 0 view .LVU117
 384 0142 47F82560 		str	r6, [r7, r5, lsl #2]
 385 0146 78E7     		b	.L9
 386              	.LVL25:
 387              	.L13:
 164:dependencies/DaisySeedGFX2/cDisplay.cpp ****     }
 388              		.loc 1 164 24 view .LVU118
 389              	.LBE1226:
 390              	.LBE1228:
ARM GAS  C:\Users\Oliver\AppData\Local\Temp\ccdKDjJp.s 			page 22


 391              	.LBE1239:
 130:dependencies/DaisySeedGFX2/cDisplay.cpp ****     }
 392              		.loc 1 130 31 view .LVU119
 393 0148 0220     		movs	r0, #2
 394              	.LVL26:
 130:dependencies/DaisySeedGFX2/cDisplay.cpp ****     }
 395              		.loc 1 130 31 view .LVU120
 396 014a 6EE7     		b	.L4
 397              	.L16:
 398              		.align	2
 399              	.L15:
 400 014c 00007F43 		.word	1132396544
 401              		.cfi_endproc
 402              	.LFE4569:
 404              		.thumb_set .LTHUNK1,_ZN6DadGFX6cLayer8setPixelEttRKNS_6sColorE
 405              		.section	.text._ZThn24_N6DadGFX6cLayer8setPixelEttRKNS_6sColorE,"ax",%progbits
 406              		.align	1
 407              		.global	_ZThn24_N6DadGFX6cLayer8setPixelEttRKNS_6sColorE
 408              		.syntax unified
 409              		.thumb
 410              		.thumb_func
 412              	_ZThn24_N6DadGFX6cLayer8setPixelEttRKNS_6sColorE:
 413              	.LFB5080:
 464:dependencies/DaisySeedGFX2/cDisplay.h **** 
 414              		.loc 2 464 27 is_stmt 1 view -0
 415              		.cfi_startproc
 416              		@ args = 0, pretend = 0, frame = 0
 417              		@ frame_needed = 0, uses_anonymous_args = 0
 418 0000 A0F11800 		sub	r0, r0, #24
 419 0004 FFF7FEBF 		b	.LTHUNK1
 420              		.cfi_endproc
 421              	.LFE5080:
 423              		.section	.text._ZN6DadGFX6cLayer10eraseLayerERKNS_6sColorE,"ax",%progbits
 424              		.align	1
 425              		.global	_ZN6DadGFX6cLayer10eraseLayerERKNS_6sColorE
 426              		.syntax unified
 427              		.thumb
 428              		.thumb_func
 430              	_ZN6DadGFX6cLayer10eraseLayerERKNS_6sColorE:
 431              	.LVL27:
 432              	.LFB4571:
 173:dependencies/DaisySeedGFX2/cDisplay.cpp **** 
 174:dependencies/DaisySeedGFX2/cDisplay.cpp **** // -----------------------------------------------------------------------------
 175:dependencies/DaisySeedGFX2/cDisplay.cpp **** // Fill a rectangle with either a foreground or background color based on a bitmap
 176:dependencies/DaisySeedGFX2/cDisplay.cpp **** //
 177:dependencies/DaisySeedGFX2/cDisplay.cpp **** // This function fills a rectangle using a bitmap (1 bit per pixel, packed) to determine
 178:dependencies/DaisySeedGFX2/cDisplay.cpp **** // whether each pixel should take the foreground color (for bits set to 1) or the background
 179:dependencies/DaisySeedGFX2/cDisplay.cpp **** // color (for bits set to 0). It supports alpha blending for semi-transparent colors.
 180:dependencies/DaisySeedGFX2/cDisplay.cpp **** //
 181:dependencies/DaisySeedGFX2/cDisplay.cpp **** // Parameters:
 182:dependencies/DaisySeedGFX2/cDisplay.cpp **** // - x0, y0: Top-left corner of the rectangle.
 183:dependencies/DaisySeedGFX2/cDisplay.cpp **** // - pBitmap: Pointer to the bitmap data (1 bit per pixel, packed).
 184:dependencies/DaisySeedGFX2/cDisplay.cpp **** // - BitmapWidth, BitmapHeight: Dimensions of the bitmap in pixels.
 185:dependencies/DaisySeedGFX2/cDisplay.cpp **** // - ForegroundColor: The color used for bits set to 1 in the bitmap.
 186:dependencies/DaisySeedGFX2/cDisplay.cpp **** // - BackgroundColor: The color used for bits set to 0 in the bitmap.
 187:dependencies/DaisySeedGFX2/cDisplay.cpp **** // -----------------------------------------------------------------------------
 188:dependencies/DaisySeedGFX2/cDisplay.cpp **** DAD_GFX_ERROR cLayer::fillRectWithBitmap(
ARM GAS  C:\Users\Oliver\AppData\Local\Temp\ccdKDjJp.s 			page 23


 189:dependencies/DaisySeedGFX2/cDisplay.cpp ****     uint16_t x0, uint16_t y0, 
 190:dependencies/DaisySeedGFX2/cDisplay.cpp ****     const uint8_t* pBitmap, uint16_t BitmapWidth, uint16_t BitmapHeight,
 191:dependencies/DaisySeedGFX2/cDisplay.cpp ****     const sColor& ForegroundColor, const sColor& BackgroundColor) {
 192:dependencies/DaisySeedGFX2/cDisplay.cpp **** 
 193:dependencies/DaisySeedGFX2/cDisplay.cpp ****     // -------------------------------------------------------------------------
 194:dependencies/DaisySeedGFX2/cDisplay.cpp ****     // Bounds check and framebuffer validation
 195:dependencies/DaisySeedGFX2/cDisplay.cpp ****     if (x0 >= m_Width || y0 >= m_Height || !m_pLayerFrame) {
 196:dependencies/DaisySeedGFX2/cDisplay.cpp ****         return DAD_GFX_ERROR::Size_Error;  // Out of bounds or invalid framebuffer
 197:dependencies/DaisySeedGFX2/cDisplay.cpp ****     }
 198:dependencies/DaisySeedGFX2/cDisplay.cpp **** 
 199:dependencies/DaisySeedGFX2/cDisplay.cpp ****     // Adjust BitmapWidth and BitmapHeight to ensure they fit within the display
 200:dependencies/DaisySeedGFX2/cDisplay.cpp ****     if (x0 + BitmapWidth > m_Width) {
 201:dependencies/DaisySeedGFX2/cDisplay.cpp ****         //BitmapWidth = m_Width - x0;
 202:dependencies/DaisySeedGFX2/cDisplay.cpp ****         return DAD_GFX_ERROR::Size_Error;  // Out of bounds 
 203:dependencies/DaisySeedGFX2/cDisplay.cpp ****     }
 204:dependencies/DaisySeedGFX2/cDisplay.cpp ****     if (y0 + BitmapHeight > m_Height) {
 205:dependencies/DaisySeedGFX2/cDisplay.cpp ****         //BitmapHeight = m_Height - y0;
 206:dependencies/DaisySeedGFX2/cDisplay.cpp ****         return DAD_GFX_ERROR::Size_Error;  // Out of bounds 
 207:dependencies/DaisySeedGFX2/cDisplay.cpp ****     }
 208:dependencies/DaisySeedGFX2/cDisplay.cpp **** 
 209:dependencies/DaisySeedGFX2/cDisplay.cpp ****     // -------------------------------------------------------------------------
 210:dependencies/DaisySeedGFX2/cDisplay.cpp ****     // Iterate through each row of the bitmap
 211:dependencies/DaisySeedGFX2/cDisplay.cpp ****     const uint8_t* pCurrentBitmap = pBitmap;  // Pointer to the current byte in the bitmap
 212:dependencies/DaisySeedGFX2/cDisplay.cpp ****     uint8_t currentByte = *pCurrentBitmap++;  // Load the first byte of the row
 213:dependencies/DaisySeedGFX2/cDisplay.cpp ****     uint8_t bitIndex = 0;  // Track the bit within the current byte
 214:dependencies/DaisySeedGFX2/cDisplay.cpp ****     
 215:dependencies/DaisySeedGFX2/cDisplay.cpp ****     for (uint16_t y = 0; y < BitmapHeight; ++y) {
 216:dependencies/DaisySeedGFX2/cDisplay.cpp ****         sColor* pFrame = &m_pLayerFrame[(y + y0) * m_Width + x0];  // Start of the row in the frame
 217:dependencies/DaisySeedGFX2/cDisplay.cpp **** 
 218:dependencies/DaisySeedGFX2/cDisplay.cpp ****         // Iterate through each column of the bitmap
 219:dependencies/DaisySeedGFX2/cDisplay.cpp ****         for (uint16_t x = 0; x < BitmapWidth; ++x) {
 220:dependencies/DaisySeedGFX2/cDisplay.cpp ****             // Determine the pixel color based on the current bitmap bit
 221:dependencies/DaisySeedGFX2/cDisplay.cpp ****             const sColor& Color = (currentByte & 0x80) ? ForegroundColor : BackgroundColor;
 222:dependencies/DaisySeedGFX2/cDisplay.cpp **** 
 223:dependencies/DaisySeedGFX2/cDisplay.cpp ****             // Apply the color with optional alpha blending
 224:dependencies/DaisySeedGFX2/cDisplay.cpp ****             if ((Color.m_A != 0) || (m_Mode == DRAW_MODE::Overwrite)) {  // Skip fully transparent 
 225:dependencies/DaisySeedGFX2/cDisplay.cpp ****                 if ((Color.m_A == 255) | (m_Mode == DRAW_MODE::Overwrite)) {
 226:dependencies/DaisySeedGFX2/cDisplay.cpp ****                     // Fully opaque color, overwrite directly
 227:dependencies/DaisySeedGFX2/cDisplay.cpp ****                     pFrame->m_ARGB = Color.m_ARGB;
 228:dependencies/DaisySeedGFX2/cDisplay.cpp ****                 } else {
 229:dependencies/DaisySeedGFX2/cDisplay.cpp ****                     // Perform alpha blending for semi-transparent colors
 230:dependencies/DaisySeedGFX2/cDisplay.cpp ****                     sColor Pixel;
 231:dependencies/DaisySeedGFX2/cDisplay.cpp ****                     Pixel.m_ARGB = pFrame->m_ARGB;  // Current pixel color in framebuffer
 232:dependencies/DaisySeedGFX2/cDisplay.cpp **** 
 233:dependencies/DaisySeedGFX2/cDisplay.cpp ****                     float alpha1 = Color.m_A / 255.0f;  // Foreground alpha
 234:dependencies/DaisySeedGFX2/cDisplay.cpp ****                     float alpha2 = Pixel.m_A / 255.0f;  // Background alpha
 235:dependencies/DaisySeedGFX2/cDisplay.cpp ****                     float outAlpha = alpha1 + alpha2 * (1 - alpha1);
 236:dependencies/DaisySeedGFX2/cDisplay.cpp **** 
 237:dependencies/DaisySeedGFX2/cDisplay.cpp ****                     // Blend each channel
 238:dependencies/DaisySeedGFX2/cDisplay.cpp ****                     Pixel.m_R = static_cast<uint8_t>((Color.m_R * alpha1 + Pixel.m_R * alpha2 * (1 
 239:dependencies/DaisySeedGFX2/cDisplay.cpp ****                     Pixel.m_G = static_cast<uint8_t>((Color.m_G * alpha1 + Pixel.m_G * alpha2 * (1 
 240:dependencies/DaisySeedGFX2/cDisplay.cpp ****                     Pixel.m_B = static_cast<uint8_t>((Color.m_B * alpha1 + Pixel.m_B * alpha2 * (1 
 241:dependencies/DaisySeedGFX2/cDisplay.cpp ****                     Pixel.m_A = static_cast<uint8_t>(outAlpha * 255);
 242:dependencies/DaisySeedGFX2/cDisplay.cpp **** 
 243:dependencies/DaisySeedGFX2/cDisplay.cpp ****                     pFrame->m_ARGB = Pixel.m_ARGB;  // Write the blended color back
 244:dependencies/DaisySeedGFX2/cDisplay.cpp ****                 }
 245:dependencies/DaisySeedGFX2/cDisplay.cpp ****             }
ARM GAS  C:\Users\Oliver\AppData\Local\Temp\ccdKDjJp.s 			page 24


 246:dependencies/DaisySeedGFX2/cDisplay.cpp **** 
 247:dependencies/DaisySeedGFX2/cDisplay.cpp ****             // Advance to the next pixel
 248:dependencies/DaisySeedGFX2/cDisplay.cpp ****             ++pFrame;
 249:dependencies/DaisySeedGFX2/cDisplay.cpp ****             ++bitIndex;
 250:dependencies/DaisySeedGFX2/cDisplay.cpp **** 
 251:dependencies/DaisySeedGFX2/cDisplay.cpp ****             // Move to the next byte in the bitmap if all bits in the current byte are used
 252:dependencies/DaisySeedGFX2/cDisplay.cpp ****             if (bitIndex > 7) {
 253:dependencies/DaisySeedGFX2/cDisplay.cpp ****                 bitIndex = 0;
 254:dependencies/DaisySeedGFX2/cDisplay.cpp ****                 currentByte = *pCurrentBitmap++;
 255:dependencies/DaisySeedGFX2/cDisplay.cpp ****             } else {
 256:dependencies/DaisySeedGFX2/cDisplay.cpp ****                 currentByte <<= 1;  // Shift to the next bit
 257:dependencies/DaisySeedGFX2/cDisplay.cpp ****             }
 258:dependencies/DaisySeedGFX2/cDisplay.cpp ****         }
 259:dependencies/DaisySeedGFX2/cDisplay.cpp ****     }
 260:dependencies/DaisySeedGFX2/cDisplay.cpp **** 
 261:dependencies/DaisySeedGFX2/cDisplay.cpp ****     // -------------------------------------------------------------------------
 262:dependencies/DaisySeedGFX2/cDisplay.cpp ****     // Invalidate the region to trigger a redraw in the display
 263:dependencies/DaisySeedGFX2/cDisplay.cpp ****     m_pDisplay->invalidateRect(x0 + m_X, y0 + m_Y, x0 + m_X + BitmapWidth - 1, y0 + m_Y + BitmapHei
 264:dependencies/DaisySeedGFX2/cDisplay.cpp **** 
 265:dependencies/DaisySeedGFX2/cDisplay.cpp ****     return DAD_GFX_ERROR::OK;  // Successful operation
 266:dependencies/DaisySeedGFX2/cDisplay.cpp **** }
 267:dependencies/DaisySeedGFX2/cDisplay.cpp **** 
 268:dependencies/DaisySeedGFX2/cDisplay.cpp **** // -----------------------------------------------------------------------------
 269:dependencies/DaisySeedGFX2/cDisplay.cpp **** // Erase the layer
 270:dependencies/DaisySeedGFX2/cDisplay.cpp **** DAD_GFX_ERROR cLayer::eraseLayer(const sColor& Color){
 433              		.loc 1 270 54 view -0
 434              		.cfi_startproc
 435              		@ args = 0, pretend = 0, frame = 0
 436              		@ frame_needed = 0, uses_anonymous_args = 0
 271:dependencies/DaisySeedGFX2/cDisplay.cpp ****     DAD_GFX_ERROR Result;
 437              		.loc 1 271 5 view .LVU123
 272:dependencies/DaisySeedGFX2/cDisplay.cpp ****     DRAW_MODE OldMode = m_Mode;
 438              		.loc 1 272 5 view .LVU124
 439              	.LBB1240:
 440              	.LBB1241:
 454:dependencies/DaisySeedGFX2/cDisplay.h ****     }
 441              		.loc 2 454 16 is_stmt 0 view .LVU125
 442 0000 0123     		movs	r3, #1
 443              	.LBE1241:
 444              	.LBE1240:
 270:dependencies/DaisySeedGFX2/cDisplay.cpp ****     DAD_GFX_ERROR Result;
 445              		.loc 1 270 54 view .LVU126
 446 0002 73B5     		push	{r0, r1, r4, r5, r6, lr}
 447              		.cfi_def_cfa_offset 24
 448              		.cfi_offset 4, -16
 449              		.cfi_offset 5, -12
 450              		.cfi_offset 6, -8
 451              		.cfi_offset 14, -4
 452              		.loc 1 272 15 view .LVU127
 453 0004 C56A     		ldr	r5, [r0, #44]
 454              	.LVL28:
 273:dependencies/DaisySeedGFX2/cDisplay.cpp ****     setMode(DRAW_MODE::Overwrite);
 455              		.loc 1 273 5 is_stmt 1 view .LVU128
 456              	.LBB1244:
 457              	.LBI1240:
 453:dependencies/DaisySeedGFX2/cDisplay.h ****         m_Mode = Mode;    
 458              		.loc 2 453 17 view .LVU129
ARM GAS  C:\Users\Oliver\AppData\Local\Temp\ccdKDjJp.s 			page 25


 459              	.LBB1242:
 454:dependencies/DaisySeedGFX2/cDisplay.h ****     }
 460              		.loc 2 454 9 view .LVU130
 461              	.LBE1242:
 462              	.LBE1244:
 270:dependencies/DaisySeedGFX2/cDisplay.cpp ****     DAD_GFX_ERROR Result;
 463              		.loc 1 270 54 is_stmt 0 view .LVU131
 464 0006 0446     		mov	r4, r0
 465              	.LBB1245:
 466              	.LBB1243:
 454:dependencies/DaisySeedGFX2/cDisplay.h ****     }
 467              		.loc 2 454 16 view .LVU132
 468 0008 C362     		str	r3, [r0, #44]
 469              	.LVL29:
 454:dependencies/DaisySeedGFX2/cDisplay.h ****     }
 470              		.loc 2 454 16 view .LVU133
 471              	.LBE1243:
 472              	.LBE1245:
 274:dependencies/DaisySeedGFX2/cDisplay.cpp ****     Result = setRectangle(0, 0, m_Width, m_Height, Color);
 473              		.loc 1 274 5 is_stmt 1 view .LVU134
 474              		.loc 1 274 26 is_stmt 0 view .LVU135
 475 000a 0368     		ldr	r3, [r0]
 476 000c 0191     		str	r1, [sp, #4]
 477 000e C289     		ldrh	r2, [r0, #14]
 478 0010 0092     		str	r2, [sp]
 479 0012 0022     		movs	r2, #0
 480 0014 1E69     		ldr	r6, [r3, #16]
 481 0016 1146     		mov	r1, r2
 482              	.LVL30:
 483              		.loc 1 274 26 view .LVU136
 484 0018 8389     		ldrh	r3, [r0, #12]
 485 001a B047     		blx	r6
 486              	.LVL31:
 275:dependencies/DaisySeedGFX2/cDisplay.cpp ****     setMode(OldMode);
 487              		.loc 1 275 5 is_stmt 1 view .LVU137
 488              	.LBB1246:
 489              	.LBI1246:
 453:dependencies/DaisySeedGFX2/cDisplay.h ****         m_Mode = Mode;    
 490              		.loc 2 453 17 view .LVU138
 491              	.LBB1247:
 454:dependencies/DaisySeedGFX2/cDisplay.h ****     }
 492              		.loc 2 454 9 view .LVU139
 454:dependencies/DaisySeedGFX2/cDisplay.h ****     }
 493              		.loc 2 454 16 is_stmt 0 view .LVU140
 494 001c E562     		str	r5, [r4, #44]
 495              	.LVL32:
 454:dependencies/DaisySeedGFX2/cDisplay.h ****     }
 496              		.loc 2 454 16 view .LVU141
 497              	.LBE1247:
 498              	.LBE1246:
 276:dependencies/DaisySeedGFX2/cDisplay.cpp ****     return Result;
 499              		.loc 1 276 5 is_stmt 1 view .LVU142
 277:dependencies/DaisySeedGFX2/cDisplay.cpp **** }
 500              		.loc 1 277 1 is_stmt 0 view .LVU143
 501 001e 02B0     		add	sp, sp, #8
 502              		.cfi_def_cfa_offset 16
 503              		@ sp needed
ARM GAS  C:\Users\Oliver\AppData\Local\Temp\ccdKDjJp.s 			page 26


 504 0020 70BD     		pop	{r4, r5, r6, pc}
 505              		.loc 1 277 1 view .LVU144
 506              		.cfi_endproc
 507              	.LFE4571:
 509              		.section	.text._ZN6DadGFX11cImageLayerD0Ev,"axG",%progbits,_ZN6DadGFX11cImageLayerD5Ev,comdat
 510              		.align	1
 511              		.weak	_ZN6DadGFX11cImageLayerD0Ev
 512              		.syntax unified
 513              		.thumb
 514              		.thumb_func
 516              	_ZN6DadGFX11cImageLayerD0Ev:
 517              	.LVL33:
 518              	.LFB4564:
 519              		.loc 2 487 13 is_stmt 1 view -0
 520              		.cfi_startproc
 521              		@ args = 0, pretend = 0, frame = 0
 522              		@ frame_needed = 0, uses_anonymous_args = 0
 523              		.loc 2 487 13 is_stmt 0 view .LVU146
 524 0000 10B5     		push	{r4, lr}
 525              		.cfi_def_cfa_offset 8
 526              		.cfi_offset 4, -8
 527              		.cfi_offset 14, -4
 528              		.loc 2 487 13 view .LVU147
 529 0002 0446     		mov	r4, r0
 530              	.LVL34:
 531              	.LBB1248:
 532              	.LBI1248:
 533              		.loc 2 487 13 is_stmt 1 view .LVU148
 534              	.LBB1249:
 535              	.LBB1250:
 536              	.LBI1250:
 372:dependencies/DaisySeedGFX2/cDisplay.h **** 
 537              		.loc 2 372 13 view .LVU149
 372:dependencies/DaisySeedGFX2/cDisplay.h **** 
 538              		.loc 2 372 13 is_stmt 0 view .LVU150
 539              	.LBE1250:
 540              	.LBE1249:
 541              	.LBE1248:
 542              		.loc 2 487 29 discriminator 1 view .LVU151
 543 0004 2421     		movs	r1, #36
 544 0006 FFF7FEFF 		bl	_ZdlPvj
 545              	.LVL35:
 546              		.loc 2 487 29 view .LVU152
 547 000a 2046     		mov	r0, r4
 548 000c 10BD     		pop	{r4, pc}
 549              		.loc 2 487 29 view .LVU153
 550              		.cfi_endproc
 551              	.LFE4564:
 553              		.section	.text._ZN6DadGFX6cLayerD0Ev,"axG",%progbits,_ZN6DadGFX6cLayerD5Ev,comdat
 554              		.align	1
 555              		.weak	_ZN6DadGFX6cLayerD0Ev
 556              		.syntax unified
 557              		.thumb
 558              		.thumb_func
 560              	_ZN6DadGFX6cLayerD0Ev:
 561              	.LVL36:
 562              	.LFB4556:
ARM GAS  C:\Users\Oliver\AppData\Local\Temp\ccdKDjJp.s 			page 27


 445:dependencies/DaisySeedGFX2/cDisplay.h ****    
 563              		.loc 2 445 13 is_stmt 1 view -0
 564              		.cfi_startproc
 565              		@ args = 0, pretend = 0, frame = 0
 566              		@ frame_needed = 0, uses_anonymous_args = 0
 445:dependencies/DaisySeedGFX2/cDisplay.h ****    
 567              		.loc 2 445 13 is_stmt 0 view .LVU155
 568 0000 10B5     		push	{r4, lr}
 569              		.cfi_def_cfa_offset 8
 570              		.cfi_offset 4, -8
 571              		.cfi_offset 14, -4
 445:dependencies/DaisySeedGFX2/cDisplay.h ****    
 572              		.loc 2 445 13 view .LVU156
 573 0002 0446     		mov	r4, r0
 574              	.LVL37:
 575              	.LBB1251:
 576              	.LBI1251:
 445:dependencies/DaisySeedGFX2/cDisplay.h ****    
 577              		.loc 2 445 13 is_stmt 1 view .LVU157
 578              	.LBB1252:
 579              	.LBB1253:
 580              	.LBI1253:
 372:dependencies/DaisySeedGFX2/cDisplay.h **** 
 581              		.loc 2 372 13 view .LVU158
 372:dependencies/DaisySeedGFX2/cDisplay.h **** 
 582              		.loc 2 372 13 is_stmt 0 view .LVU159
 583              	.LBE1253:
 584              	.LBE1252:
 585              	.LBE1251:
 445:dependencies/DaisySeedGFX2/cDisplay.h ****    
 586              		.loc 2 445 24 discriminator 1 view .LVU160
 587 0004 3021     		movs	r1, #48
 588 0006 FFF7FEFF 		bl	_ZdlPvj
 589              	.LVL38:
 445:dependencies/DaisySeedGFX2/cDisplay.h ****    
 590              		.loc 2 445 24 view .LVU161
 591 000a 2046     		mov	r0, r4
 592 000c 10BD     		pop	{r4, pc}
 445:dependencies/DaisySeedGFX2/cDisplay.h ****    
 593              		.loc 2 445 24 view .LVU162
 594              		.cfi_endproc
 595              	.LFE4556:
 597              		.section	.text._ZN6DadGFX10cLayerBaseD0Ev,"axG",%progbits,_ZN6DadGFX10cLayerBaseD5Ev,comdat
 598              		.align	1
 599              		.weak	_ZN6DadGFX10cLayerBaseD0Ev
 600              		.syntax unified
 601              		.thumb
 602              		.thumb_func
 604              	_ZN6DadGFX10cLayerBaseD0Ev:
 605              	.LVL39:
 606              	.LFB4542:
 372:dependencies/DaisySeedGFX2/cDisplay.h **** 
 607              		.loc 2 372 13 is_stmt 1 view -0
 608              		.cfi_startproc
 609              		@ args = 0, pretend = 0, frame = 0
 610              		@ frame_needed = 0, uses_anonymous_args = 0
 372:dependencies/DaisySeedGFX2/cDisplay.h **** 
ARM GAS  C:\Users\Oliver\AppData\Local\Temp\ccdKDjJp.s 			page 28


 611              		.loc 2 372 13 is_stmt 0 view .LVU164
 612 0000 10B5     		push	{r4, lr}
 613              		.cfi_def_cfa_offset 8
 614              		.cfi_offset 4, -8
 615              		.cfi_offset 14, -4
 372:dependencies/DaisySeedGFX2/cDisplay.h **** 
 616              		.loc 2 372 13 view .LVU165
 617 0002 0446     		mov	r4, r0
 618              	.LVL40:
 619              	.LBB1254:
 620              	.LBI1254:
 372:dependencies/DaisySeedGFX2/cDisplay.h **** 
 621              		.loc 2 372 13 is_stmt 1 view .LVU166
 372:dependencies/DaisySeedGFX2/cDisplay.h **** 
 622              		.loc 2 372 13 is_stmt 0 view .LVU167
 623              	.LBE1254:
 372:dependencies/DaisySeedGFX2/cDisplay.h **** 
 624              		.loc 2 372 28 discriminator 1 view .LVU168
 625 0004 1821     		movs	r1, #24
 626 0006 FFF7FEFF 		bl	_ZdlPvj
 627              	.LVL41:
 372:dependencies/DaisySeedGFX2/cDisplay.h **** 
 628              		.loc 2 372 28 view .LVU169
 629 000a 2046     		mov	r0, r4
 630 000c 10BD     		pop	{r4, pc}
 372:dependencies/DaisySeedGFX2/cDisplay.h **** 
 631              		.loc 2 372 28 view .LVU170
 632              		.cfi_endproc
 633              	.LFE4542:
 635              		.section	.text._ZSt9__advanceIN9__gnu_cxx17__normal_iteratorIPPN6DadGFX10cLayerBaseESt6vectorIS4_S
 636              		.align	1
 637              		.syntax unified
 638              		.thumb
 639              		.thumb_func
 641              	_ZSt9__advanceIN9__gnu_cxx17__normal_iteratorIPPN6DadGFX10cLayerBaseESt6vectorIS4_SaIS4_EEEEiEvRT_T
 642              	.LVL42:
 643              	.LFB5081:
 644              		.file 4 "C:/Program Files (x86)/Arm GNU Toolchain arm-none-eabi/14.3 rel1/arm-none-eabi/include/c+
   1:C:/Program Files (x86)/Arm GNU Toolchain arm-none-eabi/14.3 rel1/arm-none-eabi/include/c++/14.3.1/bits\stl_iterator_base_funcs.h **** // Functions used by iterators -*- C++ -*-
   2:C:/Program Files (x86)/Arm GNU Toolchain arm-none-eabi/14.3 rel1/arm-none-eabi/include/c++/14.3.1/bits\stl_iterator_base_funcs.h **** 
   3:C:/Program Files (x86)/Arm GNU Toolchain arm-none-eabi/14.3 rel1/arm-none-eabi/include/c++/14.3.1/bits\stl_iterator_base_funcs.h **** // Copyright (C) 2001-2024 Free Software Foundation, Inc.
   4:C:/Program Files (x86)/Arm GNU Toolchain arm-none-eabi/14.3 rel1/arm-none-eabi/include/c++/14.3.1/bits\stl_iterator_base_funcs.h **** //
   5:C:/Program Files (x86)/Arm GNU Toolchain arm-none-eabi/14.3 rel1/arm-none-eabi/include/c++/14.3.1/bits\stl_iterator_base_funcs.h **** // This file is part of the GNU ISO C++ Library.  This library is free
   6:C:/Program Files (x86)/Arm GNU Toolchain arm-none-eabi/14.3 rel1/arm-none-eabi/include/c++/14.3.1/bits\stl_iterator_base_funcs.h **** // software; you can redistribute it and/or modify it under the
   7:C:/Program Files (x86)/Arm GNU Toolchain arm-none-eabi/14.3 rel1/arm-none-eabi/include/c++/14.3.1/bits\stl_iterator_base_funcs.h **** // terms of the GNU General Public License as published by the
   8:C:/Program Files (x86)/Arm GNU Toolchain arm-none-eabi/14.3 rel1/arm-none-eabi/include/c++/14.3.1/bits\stl_iterator_base_funcs.h **** // Free Software Foundation; either version 3, or (at your option)
   9:C:/Program Files (x86)/Arm GNU Toolchain arm-none-eabi/14.3 rel1/arm-none-eabi/include/c++/14.3.1/bits\stl_iterator_base_funcs.h **** // any later version.
  10:C:/Program Files (x86)/Arm GNU Toolchain arm-none-eabi/14.3 rel1/arm-none-eabi/include/c++/14.3.1/bits\stl_iterator_base_funcs.h **** 
  11:C:/Program Files (x86)/Arm GNU Toolchain arm-none-eabi/14.3 rel1/arm-none-eabi/include/c++/14.3.1/bits\stl_iterator_base_funcs.h **** // This library is distributed in the hope that it will be useful,
  12:C:/Program Files (x86)/Arm GNU Toolchain arm-none-eabi/14.3 rel1/arm-none-eabi/include/c++/14.3.1/bits\stl_iterator_base_funcs.h **** // but WITHOUT ANY WARRANTY; without even the implied warranty of
  13:C:/Program Files (x86)/Arm GNU Toolchain arm-none-eabi/14.3 rel1/arm-none-eabi/include/c++/14.3.1/bits\stl_iterator_base_funcs.h **** // MERCHANTABILITY or FITNESS FOR A PARTICULAR PURPOSE.  See the
  14:C:/Program Files (x86)/Arm GNU Toolchain arm-none-eabi/14.3 rel1/arm-none-eabi/include/c++/14.3.1/bits\stl_iterator_base_funcs.h **** // GNU General Public License for more details.
  15:C:/Program Files (x86)/Arm GNU Toolchain arm-none-eabi/14.3 rel1/arm-none-eabi/include/c++/14.3.1/bits\stl_iterator_base_funcs.h **** 
  16:C:/Program Files (x86)/Arm GNU Toolchain arm-none-eabi/14.3 rel1/arm-none-eabi/include/c++/14.3.1/bits\stl_iterator_base_funcs.h **** // Under Section 7 of GPL version 3, you are granted additional
  17:C:/Program Files (x86)/Arm GNU Toolchain arm-none-eabi/14.3 rel1/arm-none-eabi/include/c++/14.3.1/bits\stl_iterator_base_funcs.h **** // permissions described in the GCC Runtime Library Exception, version
  18:C:/Program Files (x86)/Arm GNU Toolchain arm-none-eabi/14.3 rel1/arm-none-eabi/include/c++/14.3.1/bits\stl_iterator_base_funcs.h **** // 3.1, as published by the Free Software Foundation.
  19:C:/Program Files (x86)/Arm GNU Toolchain arm-none-eabi/14.3 rel1/arm-none-eabi/include/c++/14.3.1/bits\stl_iterator_base_funcs.h **** 
ARM GAS  C:\Users\Oliver\AppData\Local\Temp\ccdKDjJp.s 			page 29


  20:C:/Program Files (x86)/Arm GNU Toolchain arm-none-eabi/14.3 rel1/arm-none-eabi/include/c++/14.3.1/bits\stl_iterator_base_funcs.h **** // You should have received a copy of the GNU General Public License and
  21:C:/Program Files (x86)/Arm GNU Toolchain arm-none-eabi/14.3 rel1/arm-none-eabi/include/c++/14.3.1/bits\stl_iterator_base_funcs.h **** // a copy of the GCC Runtime Library Exception along with this program;
  22:C:/Program Files (x86)/Arm GNU Toolchain arm-none-eabi/14.3 rel1/arm-none-eabi/include/c++/14.3.1/bits\stl_iterator_base_funcs.h **** // see the files COPYING3 and COPYING.RUNTIME respectively.  If not, see
  23:C:/Program Files (x86)/Arm GNU Toolchain arm-none-eabi/14.3 rel1/arm-none-eabi/include/c++/14.3.1/bits\stl_iterator_base_funcs.h **** // <http://www.gnu.org/licenses/>.
  24:C:/Program Files (x86)/Arm GNU Toolchain arm-none-eabi/14.3 rel1/arm-none-eabi/include/c++/14.3.1/bits\stl_iterator_base_funcs.h **** 
  25:C:/Program Files (x86)/Arm GNU Toolchain arm-none-eabi/14.3 rel1/arm-none-eabi/include/c++/14.3.1/bits\stl_iterator_base_funcs.h **** /*
  26:C:/Program Files (x86)/Arm GNU Toolchain arm-none-eabi/14.3 rel1/arm-none-eabi/include/c++/14.3.1/bits\stl_iterator_base_funcs.h ****  *
  27:C:/Program Files (x86)/Arm GNU Toolchain arm-none-eabi/14.3 rel1/arm-none-eabi/include/c++/14.3.1/bits\stl_iterator_base_funcs.h ****  * Copyright (c) 1994
  28:C:/Program Files (x86)/Arm GNU Toolchain arm-none-eabi/14.3 rel1/arm-none-eabi/include/c++/14.3.1/bits\stl_iterator_base_funcs.h ****  * Hewlett-Packard Company
  29:C:/Program Files (x86)/Arm GNU Toolchain arm-none-eabi/14.3 rel1/arm-none-eabi/include/c++/14.3.1/bits\stl_iterator_base_funcs.h ****  *
  30:C:/Program Files (x86)/Arm GNU Toolchain arm-none-eabi/14.3 rel1/arm-none-eabi/include/c++/14.3.1/bits\stl_iterator_base_funcs.h ****  * Permission to use, copy, modify, distribute and sell this software
  31:C:/Program Files (x86)/Arm GNU Toolchain arm-none-eabi/14.3 rel1/arm-none-eabi/include/c++/14.3.1/bits\stl_iterator_base_funcs.h ****  * and its documentation for any purpose is hereby granted without fee,
  32:C:/Program Files (x86)/Arm GNU Toolchain arm-none-eabi/14.3 rel1/arm-none-eabi/include/c++/14.3.1/bits\stl_iterator_base_funcs.h ****  * provided that the above copyright notice appear in all copies and
  33:C:/Program Files (x86)/Arm GNU Toolchain arm-none-eabi/14.3 rel1/arm-none-eabi/include/c++/14.3.1/bits\stl_iterator_base_funcs.h ****  * that both that copyright notice and this permission notice appear
  34:C:/Program Files (x86)/Arm GNU Toolchain arm-none-eabi/14.3 rel1/arm-none-eabi/include/c++/14.3.1/bits\stl_iterator_base_funcs.h ****  * in supporting documentation.  Hewlett-Packard Company makes no
  35:C:/Program Files (x86)/Arm GNU Toolchain arm-none-eabi/14.3 rel1/arm-none-eabi/include/c++/14.3.1/bits\stl_iterator_base_funcs.h ****  * representations about the suitability of this software for any
  36:C:/Program Files (x86)/Arm GNU Toolchain arm-none-eabi/14.3 rel1/arm-none-eabi/include/c++/14.3.1/bits\stl_iterator_base_funcs.h ****  * purpose.  It is provided "as is" without express or implied warranty.
  37:C:/Program Files (x86)/Arm GNU Toolchain arm-none-eabi/14.3 rel1/arm-none-eabi/include/c++/14.3.1/bits\stl_iterator_base_funcs.h ****  *
  38:C:/Program Files (x86)/Arm GNU Toolchain arm-none-eabi/14.3 rel1/arm-none-eabi/include/c++/14.3.1/bits\stl_iterator_base_funcs.h ****  *
  39:C:/Program Files (x86)/Arm GNU Toolchain arm-none-eabi/14.3 rel1/arm-none-eabi/include/c++/14.3.1/bits\stl_iterator_base_funcs.h ****  * Copyright (c) 1996-1998
  40:C:/Program Files (x86)/Arm GNU Toolchain arm-none-eabi/14.3 rel1/arm-none-eabi/include/c++/14.3.1/bits\stl_iterator_base_funcs.h ****  * Silicon Graphics Computer Systems, Inc.
  41:C:/Program Files (x86)/Arm GNU Toolchain arm-none-eabi/14.3 rel1/arm-none-eabi/include/c++/14.3.1/bits\stl_iterator_base_funcs.h ****  *
  42:C:/Program Files (x86)/Arm GNU Toolchain arm-none-eabi/14.3 rel1/arm-none-eabi/include/c++/14.3.1/bits\stl_iterator_base_funcs.h ****  * Permission to use, copy, modify, distribute and sell this software
  43:C:/Program Files (x86)/Arm GNU Toolchain arm-none-eabi/14.3 rel1/arm-none-eabi/include/c++/14.3.1/bits\stl_iterator_base_funcs.h ****  * and its documentation for any purpose is hereby granted without fee,
  44:C:/Program Files (x86)/Arm GNU Toolchain arm-none-eabi/14.3 rel1/arm-none-eabi/include/c++/14.3.1/bits\stl_iterator_base_funcs.h ****  * provided that the above copyright notice appear in all copies and
  45:C:/Program Files (x86)/Arm GNU Toolchain arm-none-eabi/14.3 rel1/arm-none-eabi/include/c++/14.3.1/bits\stl_iterator_base_funcs.h ****  * that both that copyright notice and this permission notice appear
  46:C:/Program Files (x86)/Arm GNU Toolchain arm-none-eabi/14.3 rel1/arm-none-eabi/include/c++/14.3.1/bits\stl_iterator_base_funcs.h ****  * in supporting documentation.  Silicon Graphics makes no
  47:C:/Program Files (x86)/Arm GNU Toolchain arm-none-eabi/14.3 rel1/arm-none-eabi/include/c++/14.3.1/bits\stl_iterator_base_funcs.h ****  * representations about the suitability of this software for any
  48:C:/Program Files (x86)/Arm GNU Toolchain arm-none-eabi/14.3 rel1/arm-none-eabi/include/c++/14.3.1/bits\stl_iterator_base_funcs.h ****  * purpose.  It is provided "as is" without express or implied warranty.
  49:C:/Program Files (x86)/Arm GNU Toolchain arm-none-eabi/14.3 rel1/arm-none-eabi/include/c++/14.3.1/bits\stl_iterator_base_funcs.h ****  */
  50:C:/Program Files (x86)/Arm GNU Toolchain arm-none-eabi/14.3 rel1/arm-none-eabi/include/c++/14.3.1/bits\stl_iterator_base_funcs.h **** 
  51:C:/Program Files (x86)/Arm GNU Toolchain arm-none-eabi/14.3 rel1/arm-none-eabi/include/c++/14.3.1/bits\stl_iterator_base_funcs.h **** /** @file bits/stl_iterator_base_funcs.h
  52:C:/Program Files (x86)/Arm GNU Toolchain arm-none-eabi/14.3 rel1/arm-none-eabi/include/c++/14.3.1/bits\stl_iterator_base_funcs.h ****  *  This is an internal header file, included by other library headers.
  53:C:/Program Files (x86)/Arm GNU Toolchain arm-none-eabi/14.3 rel1/arm-none-eabi/include/c++/14.3.1/bits\stl_iterator_base_funcs.h ****  *  Do not attempt to use it directly. @headername{iterator}
  54:C:/Program Files (x86)/Arm GNU Toolchain arm-none-eabi/14.3 rel1/arm-none-eabi/include/c++/14.3.1/bits\stl_iterator_base_funcs.h ****  *
  55:C:/Program Files (x86)/Arm GNU Toolchain arm-none-eabi/14.3 rel1/arm-none-eabi/include/c++/14.3.1/bits\stl_iterator_base_funcs.h ****  *  This file contains all of the general iterator-related utility
  56:C:/Program Files (x86)/Arm GNU Toolchain arm-none-eabi/14.3 rel1/arm-none-eabi/include/c++/14.3.1/bits\stl_iterator_base_funcs.h ****  *  functions, such as distance() and advance().
  57:C:/Program Files (x86)/Arm GNU Toolchain arm-none-eabi/14.3 rel1/arm-none-eabi/include/c++/14.3.1/bits\stl_iterator_base_funcs.h ****  */
  58:C:/Program Files (x86)/Arm GNU Toolchain arm-none-eabi/14.3 rel1/arm-none-eabi/include/c++/14.3.1/bits\stl_iterator_base_funcs.h **** 
  59:C:/Program Files (x86)/Arm GNU Toolchain arm-none-eabi/14.3 rel1/arm-none-eabi/include/c++/14.3.1/bits\stl_iterator_base_funcs.h **** #ifndef _STL_ITERATOR_BASE_FUNCS_H
  60:C:/Program Files (x86)/Arm GNU Toolchain arm-none-eabi/14.3 rel1/arm-none-eabi/include/c++/14.3.1/bits\stl_iterator_base_funcs.h **** #define _STL_ITERATOR_BASE_FUNCS_H 1
  61:C:/Program Files (x86)/Arm GNU Toolchain arm-none-eabi/14.3 rel1/arm-none-eabi/include/c++/14.3.1/bits\stl_iterator_base_funcs.h **** 
  62:C:/Program Files (x86)/Arm GNU Toolchain arm-none-eabi/14.3 rel1/arm-none-eabi/include/c++/14.3.1/bits\stl_iterator_base_funcs.h **** #pragma GCC system_header
  63:C:/Program Files (x86)/Arm GNU Toolchain arm-none-eabi/14.3 rel1/arm-none-eabi/include/c++/14.3.1/bits\stl_iterator_base_funcs.h **** 
  64:C:/Program Files (x86)/Arm GNU Toolchain arm-none-eabi/14.3 rel1/arm-none-eabi/include/c++/14.3.1/bits\stl_iterator_base_funcs.h **** #include <bits/concept_check.h>
  65:C:/Program Files (x86)/Arm GNU Toolchain arm-none-eabi/14.3 rel1/arm-none-eabi/include/c++/14.3.1/bits\stl_iterator_base_funcs.h **** #include <debug/assertions.h>
  66:C:/Program Files (x86)/Arm GNU Toolchain arm-none-eabi/14.3 rel1/arm-none-eabi/include/c++/14.3.1/bits\stl_iterator_base_funcs.h **** #include <bits/stl_iterator_base_types.h>
  67:C:/Program Files (x86)/Arm GNU Toolchain arm-none-eabi/14.3 rel1/arm-none-eabi/include/c++/14.3.1/bits\stl_iterator_base_funcs.h **** 
  68:C:/Program Files (x86)/Arm GNU Toolchain arm-none-eabi/14.3 rel1/arm-none-eabi/include/c++/14.3.1/bits\stl_iterator_base_funcs.h **** namespace std _GLIBCXX_VISIBILITY(default)
  69:C:/Program Files (x86)/Arm GNU Toolchain arm-none-eabi/14.3 rel1/arm-none-eabi/include/c++/14.3.1/bits\stl_iterator_base_funcs.h **** {
  70:C:/Program Files (x86)/Arm GNU Toolchain arm-none-eabi/14.3 rel1/arm-none-eabi/include/c++/14.3.1/bits\stl_iterator_base_funcs.h **** _GLIBCXX_BEGIN_NAMESPACE_VERSION
  71:C:/Program Files (x86)/Arm GNU Toolchain arm-none-eabi/14.3 rel1/arm-none-eabi/include/c++/14.3.1/bits\stl_iterator_base_funcs.h **** 
  72:C:/Program Files (x86)/Arm GNU Toolchain arm-none-eabi/14.3 rel1/arm-none-eabi/include/c++/14.3.1/bits\stl_iterator_base_funcs.h **** _GLIBCXX_BEGIN_NAMESPACE_CONTAINER
  73:C:/Program Files (x86)/Arm GNU Toolchain arm-none-eabi/14.3 rel1/arm-none-eabi/include/c++/14.3.1/bits\stl_iterator_base_funcs.h ****   // Forward declaration for the overloads of __distance.
  74:C:/Program Files (x86)/Arm GNU Toolchain arm-none-eabi/14.3 rel1/arm-none-eabi/include/c++/14.3.1/bits\stl_iterator_base_funcs.h ****   template <typename> struct _List_iterator;
  75:C:/Program Files (x86)/Arm GNU Toolchain arm-none-eabi/14.3 rel1/arm-none-eabi/include/c++/14.3.1/bits\stl_iterator_base_funcs.h ****   template <typename> struct _List_const_iterator;
  76:C:/Program Files (x86)/Arm GNU Toolchain arm-none-eabi/14.3 rel1/arm-none-eabi/include/c++/14.3.1/bits\stl_iterator_base_funcs.h **** _GLIBCXX_END_NAMESPACE_CONTAINER
ARM GAS  C:\Users\Oliver\AppData\Local\Temp\ccdKDjJp.s 			page 30


  77:C:/Program Files (x86)/Arm GNU Toolchain arm-none-eabi/14.3 rel1/arm-none-eabi/include/c++/14.3.1/bits\stl_iterator_base_funcs.h **** 
  78:C:/Program Files (x86)/Arm GNU Toolchain arm-none-eabi/14.3 rel1/arm-none-eabi/include/c++/14.3.1/bits\stl_iterator_base_funcs.h ****   template<typename _InputIterator>
  79:C:/Program Files (x86)/Arm GNU Toolchain arm-none-eabi/14.3 rel1/arm-none-eabi/include/c++/14.3.1/bits\stl_iterator_base_funcs.h ****     inline _GLIBCXX14_CONSTEXPR
  80:C:/Program Files (x86)/Arm GNU Toolchain arm-none-eabi/14.3 rel1/arm-none-eabi/include/c++/14.3.1/bits\stl_iterator_base_funcs.h ****     typename iterator_traits<_InputIterator>::difference_type
  81:C:/Program Files (x86)/Arm GNU Toolchain arm-none-eabi/14.3 rel1/arm-none-eabi/include/c++/14.3.1/bits\stl_iterator_base_funcs.h ****     __distance(_InputIterator __first, _InputIterator __last,
  82:C:/Program Files (x86)/Arm GNU Toolchain arm-none-eabi/14.3 rel1/arm-none-eabi/include/c++/14.3.1/bits\stl_iterator_base_funcs.h ****                input_iterator_tag)
  83:C:/Program Files (x86)/Arm GNU Toolchain arm-none-eabi/14.3 rel1/arm-none-eabi/include/c++/14.3.1/bits\stl_iterator_base_funcs.h ****     {
  84:C:/Program Files (x86)/Arm GNU Toolchain arm-none-eabi/14.3 rel1/arm-none-eabi/include/c++/14.3.1/bits\stl_iterator_base_funcs.h ****       // concept requirements
  85:C:/Program Files (x86)/Arm GNU Toolchain arm-none-eabi/14.3 rel1/arm-none-eabi/include/c++/14.3.1/bits\stl_iterator_base_funcs.h ****       __glibcxx_function_requires(_InputIteratorConcept<_InputIterator>)
  86:C:/Program Files (x86)/Arm GNU Toolchain arm-none-eabi/14.3 rel1/arm-none-eabi/include/c++/14.3.1/bits\stl_iterator_base_funcs.h **** 
  87:C:/Program Files (x86)/Arm GNU Toolchain arm-none-eabi/14.3 rel1/arm-none-eabi/include/c++/14.3.1/bits\stl_iterator_base_funcs.h ****       typename iterator_traits<_InputIterator>::difference_type __n = 0;
  88:C:/Program Files (x86)/Arm GNU Toolchain arm-none-eabi/14.3 rel1/arm-none-eabi/include/c++/14.3.1/bits\stl_iterator_base_funcs.h ****       while (__first != __last)
  89:C:/Program Files (x86)/Arm GNU Toolchain arm-none-eabi/14.3 rel1/arm-none-eabi/include/c++/14.3.1/bits\stl_iterator_base_funcs.h **** 	{
  90:C:/Program Files (x86)/Arm GNU Toolchain arm-none-eabi/14.3 rel1/arm-none-eabi/include/c++/14.3.1/bits\stl_iterator_base_funcs.h **** 	  ++__first;
  91:C:/Program Files (x86)/Arm GNU Toolchain arm-none-eabi/14.3 rel1/arm-none-eabi/include/c++/14.3.1/bits\stl_iterator_base_funcs.h **** 	  ++__n;
  92:C:/Program Files (x86)/Arm GNU Toolchain arm-none-eabi/14.3 rel1/arm-none-eabi/include/c++/14.3.1/bits\stl_iterator_base_funcs.h **** 	}
  93:C:/Program Files (x86)/Arm GNU Toolchain arm-none-eabi/14.3 rel1/arm-none-eabi/include/c++/14.3.1/bits\stl_iterator_base_funcs.h ****       return __n;
  94:C:/Program Files (x86)/Arm GNU Toolchain arm-none-eabi/14.3 rel1/arm-none-eabi/include/c++/14.3.1/bits\stl_iterator_base_funcs.h ****     }
  95:C:/Program Files (x86)/Arm GNU Toolchain arm-none-eabi/14.3 rel1/arm-none-eabi/include/c++/14.3.1/bits\stl_iterator_base_funcs.h **** 
  96:C:/Program Files (x86)/Arm GNU Toolchain arm-none-eabi/14.3 rel1/arm-none-eabi/include/c++/14.3.1/bits\stl_iterator_base_funcs.h ****   template<typename _RandomAccessIterator>
  97:C:/Program Files (x86)/Arm GNU Toolchain arm-none-eabi/14.3 rel1/arm-none-eabi/include/c++/14.3.1/bits\stl_iterator_base_funcs.h ****     __attribute__((__always_inline__))
  98:C:/Program Files (x86)/Arm GNU Toolchain arm-none-eabi/14.3 rel1/arm-none-eabi/include/c++/14.3.1/bits\stl_iterator_base_funcs.h ****     inline _GLIBCXX14_CONSTEXPR
  99:C:/Program Files (x86)/Arm GNU Toolchain arm-none-eabi/14.3 rel1/arm-none-eabi/include/c++/14.3.1/bits\stl_iterator_base_funcs.h ****     typename iterator_traits<_RandomAccessIterator>::difference_type
 100:C:/Program Files (x86)/Arm GNU Toolchain arm-none-eabi/14.3 rel1/arm-none-eabi/include/c++/14.3.1/bits\stl_iterator_base_funcs.h ****     __distance(_RandomAccessIterator __first, _RandomAccessIterator __last,
 101:C:/Program Files (x86)/Arm GNU Toolchain arm-none-eabi/14.3 rel1/arm-none-eabi/include/c++/14.3.1/bits\stl_iterator_base_funcs.h ****                random_access_iterator_tag)
 102:C:/Program Files (x86)/Arm GNU Toolchain arm-none-eabi/14.3 rel1/arm-none-eabi/include/c++/14.3.1/bits\stl_iterator_base_funcs.h ****     {
 103:C:/Program Files (x86)/Arm GNU Toolchain arm-none-eabi/14.3 rel1/arm-none-eabi/include/c++/14.3.1/bits\stl_iterator_base_funcs.h ****       // concept requirements
 104:C:/Program Files (x86)/Arm GNU Toolchain arm-none-eabi/14.3 rel1/arm-none-eabi/include/c++/14.3.1/bits\stl_iterator_base_funcs.h ****       __glibcxx_function_requires(_RandomAccessIteratorConcept<
 105:C:/Program Files (x86)/Arm GNU Toolchain arm-none-eabi/14.3 rel1/arm-none-eabi/include/c++/14.3.1/bits\stl_iterator_base_funcs.h **** 				  _RandomAccessIterator>)
 106:C:/Program Files (x86)/Arm GNU Toolchain arm-none-eabi/14.3 rel1/arm-none-eabi/include/c++/14.3.1/bits\stl_iterator_base_funcs.h ****       return __last - __first;
 107:C:/Program Files (x86)/Arm GNU Toolchain arm-none-eabi/14.3 rel1/arm-none-eabi/include/c++/14.3.1/bits\stl_iterator_base_funcs.h ****     }
 108:C:/Program Files (x86)/Arm GNU Toolchain arm-none-eabi/14.3 rel1/arm-none-eabi/include/c++/14.3.1/bits\stl_iterator_base_funcs.h **** 
 109:C:/Program Files (x86)/Arm GNU Toolchain arm-none-eabi/14.3 rel1/arm-none-eabi/include/c++/14.3.1/bits\stl_iterator_base_funcs.h **** #if _GLIBCXX_USE_CXX11_ABI
 110:C:/Program Files (x86)/Arm GNU Toolchain arm-none-eabi/14.3 rel1/arm-none-eabi/include/c++/14.3.1/bits\stl_iterator_base_funcs.h ****   // Forward declaration because of the qualified call in distance.
 111:C:/Program Files (x86)/Arm GNU Toolchain arm-none-eabi/14.3 rel1/arm-none-eabi/include/c++/14.3.1/bits\stl_iterator_base_funcs.h ****   template<typename _Tp>
 112:C:/Program Files (x86)/Arm GNU Toolchain arm-none-eabi/14.3 rel1/arm-none-eabi/include/c++/14.3.1/bits\stl_iterator_base_funcs.h ****     ptrdiff_t
 113:C:/Program Files (x86)/Arm GNU Toolchain arm-none-eabi/14.3 rel1/arm-none-eabi/include/c++/14.3.1/bits\stl_iterator_base_funcs.h ****     __distance(_GLIBCXX_STD_C::_List_iterator<_Tp>,
 114:C:/Program Files (x86)/Arm GNU Toolchain arm-none-eabi/14.3 rel1/arm-none-eabi/include/c++/14.3.1/bits\stl_iterator_base_funcs.h **** 	       _GLIBCXX_STD_C::_List_iterator<_Tp>,
 115:C:/Program Files (x86)/Arm GNU Toolchain arm-none-eabi/14.3 rel1/arm-none-eabi/include/c++/14.3.1/bits\stl_iterator_base_funcs.h **** 	       input_iterator_tag);
 116:C:/Program Files (x86)/Arm GNU Toolchain arm-none-eabi/14.3 rel1/arm-none-eabi/include/c++/14.3.1/bits\stl_iterator_base_funcs.h **** 
 117:C:/Program Files (x86)/Arm GNU Toolchain arm-none-eabi/14.3 rel1/arm-none-eabi/include/c++/14.3.1/bits\stl_iterator_base_funcs.h ****   template<typename _Tp>
 118:C:/Program Files (x86)/Arm GNU Toolchain arm-none-eabi/14.3 rel1/arm-none-eabi/include/c++/14.3.1/bits\stl_iterator_base_funcs.h ****     ptrdiff_t
 119:C:/Program Files (x86)/Arm GNU Toolchain arm-none-eabi/14.3 rel1/arm-none-eabi/include/c++/14.3.1/bits\stl_iterator_base_funcs.h ****     __distance(_GLIBCXX_STD_C::_List_const_iterator<_Tp>,
 120:C:/Program Files (x86)/Arm GNU Toolchain arm-none-eabi/14.3 rel1/arm-none-eabi/include/c++/14.3.1/bits\stl_iterator_base_funcs.h **** 	       _GLIBCXX_STD_C::_List_const_iterator<_Tp>,
 121:C:/Program Files (x86)/Arm GNU Toolchain arm-none-eabi/14.3 rel1/arm-none-eabi/include/c++/14.3.1/bits\stl_iterator_base_funcs.h **** 	       input_iterator_tag);
 122:C:/Program Files (x86)/Arm GNU Toolchain arm-none-eabi/14.3 rel1/arm-none-eabi/include/c++/14.3.1/bits\stl_iterator_base_funcs.h **** #endif
 123:C:/Program Files (x86)/Arm GNU Toolchain arm-none-eabi/14.3 rel1/arm-none-eabi/include/c++/14.3.1/bits\stl_iterator_base_funcs.h **** 
 124:C:/Program Files (x86)/Arm GNU Toolchain arm-none-eabi/14.3 rel1/arm-none-eabi/include/c++/14.3.1/bits\stl_iterator_base_funcs.h **** #if __cplusplus >= 201103L
 125:C:/Program Files (x86)/Arm GNU Toolchain arm-none-eabi/14.3 rel1/arm-none-eabi/include/c++/14.3.1/bits\stl_iterator_base_funcs.h ****   // Give better error if std::distance called with a non-Cpp17InputIterator.
 126:C:/Program Files (x86)/Arm GNU Toolchain arm-none-eabi/14.3 rel1/arm-none-eabi/include/c++/14.3.1/bits\stl_iterator_base_funcs.h ****   template<typename _OutputIterator>
 127:C:/Program Files (x86)/Arm GNU Toolchain arm-none-eabi/14.3 rel1/arm-none-eabi/include/c++/14.3.1/bits\stl_iterator_base_funcs.h ****     void
 128:C:/Program Files (x86)/Arm GNU Toolchain arm-none-eabi/14.3 rel1/arm-none-eabi/include/c++/14.3.1/bits\stl_iterator_base_funcs.h ****     __distance(_OutputIterator, _OutputIterator, output_iterator_tag) = delete;
 129:C:/Program Files (x86)/Arm GNU Toolchain arm-none-eabi/14.3 rel1/arm-none-eabi/include/c++/14.3.1/bits\stl_iterator_base_funcs.h **** #endif
 130:C:/Program Files (x86)/Arm GNU Toolchain arm-none-eabi/14.3 rel1/arm-none-eabi/include/c++/14.3.1/bits\stl_iterator_base_funcs.h **** 
 131:C:/Program Files (x86)/Arm GNU Toolchain arm-none-eabi/14.3 rel1/arm-none-eabi/include/c++/14.3.1/bits\stl_iterator_base_funcs.h ****   /**
 132:C:/Program Files (x86)/Arm GNU Toolchain arm-none-eabi/14.3 rel1/arm-none-eabi/include/c++/14.3.1/bits\stl_iterator_base_funcs.h ****    *  @brief A generalization of pointer arithmetic.
 133:C:/Program Files (x86)/Arm GNU Toolchain arm-none-eabi/14.3 rel1/arm-none-eabi/include/c++/14.3.1/bits\stl_iterator_base_funcs.h ****    *  @param  __first  An input iterator.
ARM GAS  C:\Users\Oliver\AppData\Local\Temp\ccdKDjJp.s 			page 31


 134:C:/Program Files (x86)/Arm GNU Toolchain arm-none-eabi/14.3 rel1/arm-none-eabi/include/c++/14.3.1/bits\stl_iterator_base_funcs.h ****    *  @param  __last  An input iterator.
 135:C:/Program Files (x86)/Arm GNU Toolchain arm-none-eabi/14.3 rel1/arm-none-eabi/include/c++/14.3.1/bits\stl_iterator_base_funcs.h ****    *  @return  The distance between them.
 136:C:/Program Files (x86)/Arm GNU Toolchain arm-none-eabi/14.3 rel1/arm-none-eabi/include/c++/14.3.1/bits\stl_iterator_base_funcs.h ****    *
 137:C:/Program Files (x86)/Arm GNU Toolchain arm-none-eabi/14.3 rel1/arm-none-eabi/include/c++/14.3.1/bits\stl_iterator_base_funcs.h ****    *  Returns @c n such that __first + n == __last.  This requires
 138:C:/Program Files (x86)/Arm GNU Toolchain arm-none-eabi/14.3 rel1/arm-none-eabi/include/c++/14.3.1/bits\stl_iterator_base_funcs.h ****    *  that @p __last must be reachable from @p __first.  Note that @c
 139:C:/Program Files (x86)/Arm GNU Toolchain arm-none-eabi/14.3 rel1/arm-none-eabi/include/c++/14.3.1/bits\stl_iterator_base_funcs.h ****    *  n may be negative.
 140:C:/Program Files (x86)/Arm GNU Toolchain arm-none-eabi/14.3 rel1/arm-none-eabi/include/c++/14.3.1/bits\stl_iterator_base_funcs.h ****    *
 141:C:/Program Files (x86)/Arm GNU Toolchain arm-none-eabi/14.3 rel1/arm-none-eabi/include/c++/14.3.1/bits\stl_iterator_base_funcs.h ****    *  For random access iterators, this uses their @c + and @c - operations
 142:C:/Program Files (x86)/Arm GNU Toolchain arm-none-eabi/14.3 rel1/arm-none-eabi/include/c++/14.3.1/bits\stl_iterator_base_funcs.h ****    *  and are constant time.  For other %iterator classes they are linear time.
 143:C:/Program Files (x86)/Arm GNU Toolchain arm-none-eabi/14.3 rel1/arm-none-eabi/include/c++/14.3.1/bits\stl_iterator_base_funcs.h ****   */
 144:C:/Program Files (x86)/Arm GNU Toolchain arm-none-eabi/14.3 rel1/arm-none-eabi/include/c++/14.3.1/bits\stl_iterator_base_funcs.h ****   template<typename _InputIterator>
 145:C:/Program Files (x86)/Arm GNU Toolchain arm-none-eabi/14.3 rel1/arm-none-eabi/include/c++/14.3.1/bits\stl_iterator_base_funcs.h ****     _GLIBCXX_NODISCARD __attribute__((__always_inline__))
 146:C:/Program Files (x86)/Arm GNU Toolchain arm-none-eabi/14.3 rel1/arm-none-eabi/include/c++/14.3.1/bits\stl_iterator_base_funcs.h ****     inline _GLIBCXX17_CONSTEXPR
 147:C:/Program Files (x86)/Arm GNU Toolchain arm-none-eabi/14.3 rel1/arm-none-eabi/include/c++/14.3.1/bits\stl_iterator_base_funcs.h ****     typename iterator_traits<_InputIterator>::difference_type
 148:C:/Program Files (x86)/Arm GNU Toolchain arm-none-eabi/14.3 rel1/arm-none-eabi/include/c++/14.3.1/bits\stl_iterator_base_funcs.h ****     distance(_InputIterator __first, _InputIterator __last)
 149:C:/Program Files (x86)/Arm GNU Toolchain arm-none-eabi/14.3 rel1/arm-none-eabi/include/c++/14.3.1/bits\stl_iterator_base_funcs.h ****     {
 150:C:/Program Files (x86)/Arm GNU Toolchain arm-none-eabi/14.3 rel1/arm-none-eabi/include/c++/14.3.1/bits\stl_iterator_base_funcs.h ****       // concept requirements -- taken care of in __distance
 151:C:/Program Files (x86)/Arm GNU Toolchain arm-none-eabi/14.3 rel1/arm-none-eabi/include/c++/14.3.1/bits\stl_iterator_base_funcs.h ****       return std::__distance(__first, __last,
 152:C:/Program Files (x86)/Arm GNU Toolchain arm-none-eabi/14.3 rel1/arm-none-eabi/include/c++/14.3.1/bits\stl_iterator_base_funcs.h **** 			     std::__iterator_category(__first));
 153:C:/Program Files (x86)/Arm GNU Toolchain arm-none-eabi/14.3 rel1/arm-none-eabi/include/c++/14.3.1/bits\stl_iterator_base_funcs.h ****     }
 154:C:/Program Files (x86)/Arm GNU Toolchain arm-none-eabi/14.3 rel1/arm-none-eabi/include/c++/14.3.1/bits\stl_iterator_base_funcs.h **** 
 155:C:/Program Files (x86)/Arm GNU Toolchain arm-none-eabi/14.3 rel1/arm-none-eabi/include/c++/14.3.1/bits\stl_iterator_base_funcs.h ****   template<typename _InputIterator, typename _Distance>
 156:C:/Program Files (x86)/Arm GNU Toolchain arm-none-eabi/14.3 rel1/arm-none-eabi/include/c++/14.3.1/bits\stl_iterator_base_funcs.h ****     inline _GLIBCXX14_CONSTEXPR void
 157:C:/Program Files (x86)/Arm GNU Toolchain arm-none-eabi/14.3 rel1/arm-none-eabi/include/c++/14.3.1/bits\stl_iterator_base_funcs.h ****     __advance(_InputIterator& __i, _Distance __n, input_iterator_tag)
 158:C:/Program Files (x86)/Arm GNU Toolchain arm-none-eabi/14.3 rel1/arm-none-eabi/include/c++/14.3.1/bits\stl_iterator_base_funcs.h ****     {
 159:C:/Program Files (x86)/Arm GNU Toolchain arm-none-eabi/14.3 rel1/arm-none-eabi/include/c++/14.3.1/bits\stl_iterator_base_funcs.h ****       // concept requirements
 160:C:/Program Files (x86)/Arm GNU Toolchain arm-none-eabi/14.3 rel1/arm-none-eabi/include/c++/14.3.1/bits\stl_iterator_base_funcs.h ****       __glibcxx_function_requires(_InputIteratorConcept<_InputIterator>)
 161:C:/Program Files (x86)/Arm GNU Toolchain arm-none-eabi/14.3 rel1/arm-none-eabi/include/c++/14.3.1/bits\stl_iterator_base_funcs.h ****       __glibcxx_assert(__n >= 0);
 162:C:/Program Files (x86)/Arm GNU Toolchain arm-none-eabi/14.3 rel1/arm-none-eabi/include/c++/14.3.1/bits\stl_iterator_base_funcs.h ****       while (__n--)
 163:C:/Program Files (x86)/Arm GNU Toolchain arm-none-eabi/14.3 rel1/arm-none-eabi/include/c++/14.3.1/bits\stl_iterator_base_funcs.h **** 	++__i;
 164:C:/Program Files (x86)/Arm GNU Toolchain arm-none-eabi/14.3 rel1/arm-none-eabi/include/c++/14.3.1/bits\stl_iterator_base_funcs.h ****     }
 165:C:/Program Files (x86)/Arm GNU Toolchain arm-none-eabi/14.3 rel1/arm-none-eabi/include/c++/14.3.1/bits\stl_iterator_base_funcs.h **** 
 166:C:/Program Files (x86)/Arm GNU Toolchain arm-none-eabi/14.3 rel1/arm-none-eabi/include/c++/14.3.1/bits\stl_iterator_base_funcs.h ****   template<typename _BidirectionalIterator, typename _Distance>
 167:C:/Program Files (x86)/Arm GNU Toolchain arm-none-eabi/14.3 rel1/arm-none-eabi/include/c++/14.3.1/bits\stl_iterator_base_funcs.h ****     inline _GLIBCXX14_CONSTEXPR void
 168:C:/Program Files (x86)/Arm GNU Toolchain arm-none-eabi/14.3 rel1/arm-none-eabi/include/c++/14.3.1/bits\stl_iterator_base_funcs.h ****     __advance(_BidirectionalIterator& __i, _Distance __n,
 169:C:/Program Files (x86)/Arm GNU Toolchain arm-none-eabi/14.3 rel1/arm-none-eabi/include/c++/14.3.1/bits\stl_iterator_base_funcs.h **** 	      bidirectional_iterator_tag)
 170:C:/Program Files (x86)/Arm GNU Toolchain arm-none-eabi/14.3 rel1/arm-none-eabi/include/c++/14.3.1/bits\stl_iterator_base_funcs.h ****     {
 171:C:/Program Files (x86)/Arm GNU Toolchain arm-none-eabi/14.3 rel1/arm-none-eabi/include/c++/14.3.1/bits\stl_iterator_base_funcs.h ****       // concept requirements
 172:C:/Program Files (x86)/Arm GNU Toolchain arm-none-eabi/14.3 rel1/arm-none-eabi/include/c++/14.3.1/bits\stl_iterator_base_funcs.h ****       __glibcxx_function_requires(_BidirectionalIteratorConcept<
 173:C:/Program Files (x86)/Arm GNU Toolchain arm-none-eabi/14.3 rel1/arm-none-eabi/include/c++/14.3.1/bits\stl_iterator_base_funcs.h **** 				  _BidirectionalIterator>)
 174:C:/Program Files (x86)/Arm GNU Toolchain arm-none-eabi/14.3 rel1/arm-none-eabi/include/c++/14.3.1/bits\stl_iterator_base_funcs.h ****       if (__n > 0)
 175:C:/Program Files (x86)/Arm GNU Toolchain arm-none-eabi/14.3 rel1/arm-none-eabi/include/c++/14.3.1/bits\stl_iterator_base_funcs.h ****         while (__n--)
 176:C:/Program Files (x86)/Arm GNU Toolchain arm-none-eabi/14.3 rel1/arm-none-eabi/include/c++/14.3.1/bits\stl_iterator_base_funcs.h **** 	  ++__i;
 177:C:/Program Files (x86)/Arm GNU Toolchain arm-none-eabi/14.3 rel1/arm-none-eabi/include/c++/14.3.1/bits\stl_iterator_base_funcs.h ****       else
 178:C:/Program Files (x86)/Arm GNU Toolchain arm-none-eabi/14.3 rel1/arm-none-eabi/include/c++/14.3.1/bits\stl_iterator_base_funcs.h ****         while (__n++)
 179:C:/Program Files (x86)/Arm GNU Toolchain arm-none-eabi/14.3 rel1/arm-none-eabi/include/c++/14.3.1/bits\stl_iterator_base_funcs.h **** 	  --__i;
 180:C:/Program Files (x86)/Arm GNU Toolchain arm-none-eabi/14.3 rel1/arm-none-eabi/include/c++/14.3.1/bits\stl_iterator_base_funcs.h ****     }
 181:C:/Program Files (x86)/Arm GNU Toolchain arm-none-eabi/14.3 rel1/arm-none-eabi/include/c++/14.3.1/bits\stl_iterator_base_funcs.h **** 
 182:C:/Program Files (x86)/Arm GNU Toolchain arm-none-eabi/14.3 rel1/arm-none-eabi/include/c++/14.3.1/bits\stl_iterator_base_funcs.h ****   template<typename _RandomAccessIterator, typename _Distance>
 183:C:/Program Files (x86)/Arm GNU Toolchain arm-none-eabi/14.3 rel1/arm-none-eabi/include/c++/14.3.1/bits\stl_iterator_base_funcs.h ****     inline _GLIBCXX14_CONSTEXPR void
 184:C:/Program Files (x86)/Arm GNU Toolchain arm-none-eabi/14.3 rel1/arm-none-eabi/include/c++/14.3.1/bits\stl_iterator_base_funcs.h ****     __advance(_RandomAccessIterator& __i, _Distance __n,
 645              		.loc 4 184 5 is_stmt 1 view -0
 646              		.cfi_startproc
 647              		@ args = 0, pretend = 0, frame = 0
 648              		@ frame_needed = 0, uses_anonymous_args = 0
 649              		@ link register save eliminated.
 650              	.LBB1271:
ARM GAS  C:\Users\Oliver\AppData\Local\Temp\ccdKDjJp.s 			page 32


 651              	.LBI1271:
 652              		.loc 4 184 5 view .LVU172
 653              	.LBB1272:
 654              	.LBI1272:
 655              		.file 5 "C:/Program Files (x86)/Arm GNU Toolchain arm-none-eabi/14.3 rel1/arm-none-eabi/include/c+
   1:C:/Program Files (x86)/Arm GNU Toolchain arm-none-eabi/14.3 rel1/arm-none-eabi/include/c++/14.3.1/bits\stl_iterator.h **** // Iterators -*- C++ -*-
   2:C:/Program Files (x86)/Arm GNU Toolchain arm-none-eabi/14.3 rel1/arm-none-eabi/include/c++/14.3.1/bits\stl_iterator.h **** 
   3:C:/Program Files (x86)/Arm GNU Toolchain arm-none-eabi/14.3 rel1/arm-none-eabi/include/c++/14.3.1/bits\stl_iterator.h **** // Copyright (C) 2001-2024 Free Software Foundation, Inc.
   4:C:/Program Files (x86)/Arm GNU Toolchain arm-none-eabi/14.3 rel1/arm-none-eabi/include/c++/14.3.1/bits\stl_iterator.h **** //
   5:C:/Program Files (x86)/Arm GNU Toolchain arm-none-eabi/14.3 rel1/arm-none-eabi/include/c++/14.3.1/bits\stl_iterator.h **** // This file is part of the GNU ISO C++ Library.  This library is free
   6:C:/Program Files (x86)/Arm GNU Toolchain arm-none-eabi/14.3 rel1/arm-none-eabi/include/c++/14.3.1/bits\stl_iterator.h **** // software; you can redistribute it and/or modify it under the
   7:C:/Program Files (x86)/Arm GNU Toolchain arm-none-eabi/14.3 rel1/arm-none-eabi/include/c++/14.3.1/bits\stl_iterator.h **** // terms of the GNU General Public License as published by the
   8:C:/Program Files (x86)/Arm GNU Toolchain arm-none-eabi/14.3 rel1/arm-none-eabi/include/c++/14.3.1/bits\stl_iterator.h **** // Free Software Foundation; either version 3, or (at your option)
   9:C:/Program Files (x86)/Arm GNU Toolchain arm-none-eabi/14.3 rel1/arm-none-eabi/include/c++/14.3.1/bits\stl_iterator.h **** // any later version.
  10:C:/Program Files (x86)/Arm GNU Toolchain arm-none-eabi/14.3 rel1/arm-none-eabi/include/c++/14.3.1/bits\stl_iterator.h **** 
  11:C:/Program Files (x86)/Arm GNU Toolchain arm-none-eabi/14.3 rel1/arm-none-eabi/include/c++/14.3.1/bits\stl_iterator.h **** // This library is distributed in the hope that it will be useful,
  12:C:/Program Files (x86)/Arm GNU Toolchain arm-none-eabi/14.3 rel1/arm-none-eabi/include/c++/14.3.1/bits\stl_iterator.h **** // but WITHOUT ANY WARRANTY; without even the implied warranty of
  13:C:/Program Files (x86)/Arm GNU Toolchain arm-none-eabi/14.3 rel1/arm-none-eabi/include/c++/14.3.1/bits\stl_iterator.h **** // MERCHANTABILITY or FITNESS FOR A PARTICULAR PURPOSE.  See the
  14:C:/Program Files (x86)/Arm GNU Toolchain arm-none-eabi/14.3 rel1/arm-none-eabi/include/c++/14.3.1/bits\stl_iterator.h **** // GNU General Public License for more details.
  15:C:/Program Files (x86)/Arm GNU Toolchain arm-none-eabi/14.3 rel1/arm-none-eabi/include/c++/14.3.1/bits\stl_iterator.h **** 
  16:C:/Program Files (x86)/Arm GNU Toolchain arm-none-eabi/14.3 rel1/arm-none-eabi/include/c++/14.3.1/bits\stl_iterator.h **** // Under Section 7 of GPL version 3, you are granted additional
  17:C:/Program Files (x86)/Arm GNU Toolchain arm-none-eabi/14.3 rel1/arm-none-eabi/include/c++/14.3.1/bits\stl_iterator.h **** // permissions described in the GCC Runtime Library Exception, version
  18:C:/Program Files (x86)/Arm GNU Toolchain arm-none-eabi/14.3 rel1/arm-none-eabi/include/c++/14.3.1/bits\stl_iterator.h **** // 3.1, as published by the Free Software Foundation.
  19:C:/Program Files (x86)/Arm GNU Toolchain arm-none-eabi/14.3 rel1/arm-none-eabi/include/c++/14.3.1/bits\stl_iterator.h **** 
  20:C:/Program Files (x86)/Arm GNU Toolchain arm-none-eabi/14.3 rel1/arm-none-eabi/include/c++/14.3.1/bits\stl_iterator.h **** // You should have received a copy of the GNU General Public License and
  21:C:/Program Files (x86)/Arm GNU Toolchain arm-none-eabi/14.3 rel1/arm-none-eabi/include/c++/14.3.1/bits\stl_iterator.h **** // a copy of the GCC Runtime Library Exception along with this program;
  22:C:/Program Files (x86)/Arm GNU Toolchain arm-none-eabi/14.3 rel1/arm-none-eabi/include/c++/14.3.1/bits\stl_iterator.h **** // see the files COPYING3 and COPYING.RUNTIME respectively.  If not, see
  23:C:/Program Files (x86)/Arm GNU Toolchain arm-none-eabi/14.3 rel1/arm-none-eabi/include/c++/14.3.1/bits\stl_iterator.h **** // <http://www.gnu.org/licenses/>.
  24:C:/Program Files (x86)/Arm GNU Toolchain arm-none-eabi/14.3 rel1/arm-none-eabi/include/c++/14.3.1/bits\stl_iterator.h **** 
  25:C:/Program Files (x86)/Arm GNU Toolchain arm-none-eabi/14.3 rel1/arm-none-eabi/include/c++/14.3.1/bits\stl_iterator.h **** /*
  26:C:/Program Files (x86)/Arm GNU Toolchain arm-none-eabi/14.3 rel1/arm-none-eabi/include/c++/14.3.1/bits\stl_iterator.h ****  *
  27:C:/Program Files (x86)/Arm GNU Toolchain arm-none-eabi/14.3 rel1/arm-none-eabi/include/c++/14.3.1/bits\stl_iterator.h ****  * Copyright (c) 1994
  28:C:/Program Files (x86)/Arm GNU Toolchain arm-none-eabi/14.3 rel1/arm-none-eabi/include/c++/14.3.1/bits\stl_iterator.h ****  * Hewlett-Packard Company
  29:C:/Program Files (x86)/Arm GNU Toolchain arm-none-eabi/14.3 rel1/arm-none-eabi/include/c++/14.3.1/bits\stl_iterator.h ****  *
  30:C:/Program Files (x86)/Arm GNU Toolchain arm-none-eabi/14.3 rel1/arm-none-eabi/include/c++/14.3.1/bits\stl_iterator.h ****  * Permission to use, copy, modify, distribute and sell this software
  31:C:/Program Files (x86)/Arm GNU Toolchain arm-none-eabi/14.3 rel1/arm-none-eabi/include/c++/14.3.1/bits\stl_iterator.h ****  * and its documentation for any purpose is hereby granted without fee,
  32:C:/Program Files (x86)/Arm GNU Toolchain arm-none-eabi/14.3 rel1/arm-none-eabi/include/c++/14.3.1/bits\stl_iterator.h ****  * provided that the above copyright notice appear in all copies and
  33:C:/Program Files (x86)/Arm GNU Toolchain arm-none-eabi/14.3 rel1/arm-none-eabi/include/c++/14.3.1/bits\stl_iterator.h ****  * that both that copyright notice and this permission notice appear
  34:C:/Program Files (x86)/Arm GNU Toolchain arm-none-eabi/14.3 rel1/arm-none-eabi/include/c++/14.3.1/bits\stl_iterator.h ****  * in supporting documentation.  Hewlett-Packard Company makes no
  35:C:/Program Files (x86)/Arm GNU Toolchain arm-none-eabi/14.3 rel1/arm-none-eabi/include/c++/14.3.1/bits\stl_iterator.h ****  * representations about the suitability of this software for any
  36:C:/Program Files (x86)/Arm GNU Toolchain arm-none-eabi/14.3 rel1/arm-none-eabi/include/c++/14.3.1/bits\stl_iterator.h ****  * purpose.  It is provided "as is" without express or implied warranty.
  37:C:/Program Files (x86)/Arm GNU Toolchain arm-none-eabi/14.3 rel1/arm-none-eabi/include/c++/14.3.1/bits\stl_iterator.h ****  *
  38:C:/Program Files (x86)/Arm GNU Toolchain arm-none-eabi/14.3 rel1/arm-none-eabi/include/c++/14.3.1/bits\stl_iterator.h ****  *
  39:C:/Program Files (x86)/Arm GNU Toolchain arm-none-eabi/14.3 rel1/arm-none-eabi/include/c++/14.3.1/bits\stl_iterator.h ****  * Copyright (c) 1996-1998
  40:C:/Program Files (x86)/Arm GNU Toolchain arm-none-eabi/14.3 rel1/arm-none-eabi/include/c++/14.3.1/bits\stl_iterator.h ****  * Silicon Graphics Computer Systems, Inc.
  41:C:/Program Files (x86)/Arm GNU Toolchain arm-none-eabi/14.3 rel1/arm-none-eabi/include/c++/14.3.1/bits\stl_iterator.h ****  *
  42:C:/Program Files (x86)/Arm GNU Toolchain arm-none-eabi/14.3 rel1/arm-none-eabi/include/c++/14.3.1/bits\stl_iterator.h ****  * Permission to use, copy, modify, distribute and sell this software
  43:C:/Program Files (x86)/Arm GNU Toolchain arm-none-eabi/14.3 rel1/arm-none-eabi/include/c++/14.3.1/bits\stl_iterator.h ****  * and its documentation for any purpose is hereby granted without fee,
  44:C:/Program Files (x86)/Arm GNU Toolchain arm-none-eabi/14.3 rel1/arm-none-eabi/include/c++/14.3.1/bits\stl_iterator.h ****  * provided that the above copyright notice appear in all copies and
  45:C:/Program Files (x86)/Arm GNU Toolchain arm-none-eabi/14.3 rel1/arm-none-eabi/include/c++/14.3.1/bits\stl_iterator.h ****  * that both that copyright notice and this permission notice appear
  46:C:/Program Files (x86)/Arm GNU Toolchain arm-none-eabi/14.3 rel1/arm-none-eabi/include/c++/14.3.1/bits\stl_iterator.h ****  * in supporting documentation.  Silicon Graphics makes no
  47:C:/Program Files (x86)/Arm GNU Toolchain arm-none-eabi/14.3 rel1/arm-none-eabi/include/c++/14.3.1/bits\stl_iterator.h ****  * representations about the suitability of this software for any
  48:C:/Program Files (x86)/Arm GNU Toolchain arm-none-eabi/14.3 rel1/arm-none-eabi/include/c++/14.3.1/bits\stl_iterator.h ****  * purpose.  It is provided "as is" without express or implied warranty.
  49:C:/Program Files (x86)/Arm GNU Toolchain arm-none-eabi/14.3 rel1/arm-none-eabi/include/c++/14.3.1/bits\stl_iterator.h ****  */
  50:C:/Program Files (x86)/Arm GNU Toolchain arm-none-eabi/14.3 rel1/arm-none-eabi/include/c++/14.3.1/bits\stl_iterator.h **** 
  51:C:/Program Files (x86)/Arm GNU Toolchain arm-none-eabi/14.3 rel1/arm-none-eabi/include/c++/14.3.1/bits\stl_iterator.h **** /** @file bits/stl_iterator.h
  52:C:/Program Files (x86)/Arm GNU Toolchain arm-none-eabi/14.3 rel1/arm-none-eabi/include/c++/14.3.1/bits\stl_iterator.h ****  *  This is an internal header file, included by other library headers.
ARM GAS  C:\Users\Oliver\AppData\Local\Temp\ccdKDjJp.s 			page 33


  53:C:/Program Files (x86)/Arm GNU Toolchain arm-none-eabi/14.3 rel1/arm-none-eabi/include/c++/14.3.1/bits\stl_iterator.h ****  *  Do not attempt to use it directly. @headername{iterator}
  54:C:/Program Files (x86)/Arm GNU Toolchain arm-none-eabi/14.3 rel1/arm-none-eabi/include/c++/14.3.1/bits\stl_iterator.h ****  *
  55:C:/Program Files (x86)/Arm GNU Toolchain arm-none-eabi/14.3 rel1/arm-none-eabi/include/c++/14.3.1/bits\stl_iterator.h ****  *  This file implements reverse_iterator, back_insert_iterator,
  56:C:/Program Files (x86)/Arm GNU Toolchain arm-none-eabi/14.3 rel1/arm-none-eabi/include/c++/14.3.1/bits\stl_iterator.h ****  *  front_insert_iterator, insert_iterator, __normal_iterator, and their
  57:C:/Program Files (x86)/Arm GNU Toolchain arm-none-eabi/14.3 rel1/arm-none-eabi/include/c++/14.3.1/bits\stl_iterator.h ****  *  supporting functions and overloaded operators.
  58:C:/Program Files (x86)/Arm GNU Toolchain arm-none-eabi/14.3 rel1/arm-none-eabi/include/c++/14.3.1/bits\stl_iterator.h ****  */
  59:C:/Program Files (x86)/Arm GNU Toolchain arm-none-eabi/14.3 rel1/arm-none-eabi/include/c++/14.3.1/bits\stl_iterator.h **** 
  60:C:/Program Files (x86)/Arm GNU Toolchain arm-none-eabi/14.3 rel1/arm-none-eabi/include/c++/14.3.1/bits\stl_iterator.h **** #ifndef _STL_ITERATOR_H
  61:C:/Program Files (x86)/Arm GNU Toolchain arm-none-eabi/14.3 rel1/arm-none-eabi/include/c++/14.3.1/bits\stl_iterator.h **** #define _STL_ITERATOR_H 1
  62:C:/Program Files (x86)/Arm GNU Toolchain arm-none-eabi/14.3 rel1/arm-none-eabi/include/c++/14.3.1/bits\stl_iterator.h **** 
  63:C:/Program Files (x86)/Arm GNU Toolchain arm-none-eabi/14.3 rel1/arm-none-eabi/include/c++/14.3.1/bits\stl_iterator.h **** #include <bits/cpp_type_traits.h>
  64:C:/Program Files (x86)/Arm GNU Toolchain arm-none-eabi/14.3 rel1/arm-none-eabi/include/c++/14.3.1/bits\stl_iterator.h **** #include <bits/stl_iterator_base_types.h>
  65:C:/Program Files (x86)/Arm GNU Toolchain arm-none-eabi/14.3 rel1/arm-none-eabi/include/c++/14.3.1/bits\stl_iterator.h **** #include <ext/type_traits.h>
  66:C:/Program Files (x86)/Arm GNU Toolchain arm-none-eabi/14.3 rel1/arm-none-eabi/include/c++/14.3.1/bits\stl_iterator.h **** #include <bits/move.h>
  67:C:/Program Files (x86)/Arm GNU Toolchain arm-none-eabi/14.3 rel1/arm-none-eabi/include/c++/14.3.1/bits\stl_iterator.h **** #include <bits/ptr_traits.h>
  68:C:/Program Files (x86)/Arm GNU Toolchain arm-none-eabi/14.3 rel1/arm-none-eabi/include/c++/14.3.1/bits\stl_iterator.h **** 
  69:C:/Program Files (x86)/Arm GNU Toolchain arm-none-eabi/14.3 rel1/arm-none-eabi/include/c++/14.3.1/bits\stl_iterator.h **** #if __cplusplus >= 201103L
  70:C:/Program Files (x86)/Arm GNU Toolchain arm-none-eabi/14.3 rel1/arm-none-eabi/include/c++/14.3.1/bits\stl_iterator.h **** # include <type_traits>
  71:C:/Program Files (x86)/Arm GNU Toolchain arm-none-eabi/14.3 rel1/arm-none-eabi/include/c++/14.3.1/bits\stl_iterator.h **** #endif
  72:C:/Program Files (x86)/Arm GNU Toolchain arm-none-eabi/14.3 rel1/arm-none-eabi/include/c++/14.3.1/bits\stl_iterator.h **** 
  73:C:/Program Files (x86)/Arm GNU Toolchain arm-none-eabi/14.3 rel1/arm-none-eabi/include/c++/14.3.1/bits\stl_iterator.h **** #if __cplusplus >= 202002L
  74:C:/Program Files (x86)/Arm GNU Toolchain arm-none-eabi/14.3 rel1/arm-none-eabi/include/c++/14.3.1/bits\stl_iterator.h **** # include <compare>
  75:C:/Program Files (x86)/Arm GNU Toolchain arm-none-eabi/14.3 rel1/arm-none-eabi/include/c++/14.3.1/bits\stl_iterator.h **** # include <new>
  76:C:/Program Files (x86)/Arm GNU Toolchain arm-none-eabi/14.3 rel1/arm-none-eabi/include/c++/14.3.1/bits\stl_iterator.h **** # include <bits/exception_defines.h>
  77:C:/Program Files (x86)/Arm GNU Toolchain arm-none-eabi/14.3 rel1/arm-none-eabi/include/c++/14.3.1/bits\stl_iterator.h **** # include <bits/iterator_concepts.h>
  78:C:/Program Files (x86)/Arm GNU Toolchain arm-none-eabi/14.3 rel1/arm-none-eabi/include/c++/14.3.1/bits\stl_iterator.h **** # include <bits/stl_construct.h>
  79:C:/Program Files (x86)/Arm GNU Toolchain arm-none-eabi/14.3 rel1/arm-none-eabi/include/c++/14.3.1/bits\stl_iterator.h **** #endif
  80:C:/Program Files (x86)/Arm GNU Toolchain arm-none-eabi/14.3 rel1/arm-none-eabi/include/c++/14.3.1/bits\stl_iterator.h **** 
  81:C:/Program Files (x86)/Arm GNU Toolchain arm-none-eabi/14.3 rel1/arm-none-eabi/include/c++/14.3.1/bits\stl_iterator.h **** #if __glibcxx_tuple_like // >= C++23
  82:C:/Program Files (x86)/Arm GNU Toolchain arm-none-eabi/14.3 rel1/arm-none-eabi/include/c++/14.3.1/bits\stl_iterator.h **** # include <bits/utility.h> // for tuple_element_t
  83:C:/Program Files (x86)/Arm GNU Toolchain arm-none-eabi/14.3 rel1/arm-none-eabi/include/c++/14.3.1/bits\stl_iterator.h **** #endif
  84:C:/Program Files (x86)/Arm GNU Toolchain arm-none-eabi/14.3 rel1/arm-none-eabi/include/c++/14.3.1/bits\stl_iterator.h **** 
  85:C:/Program Files (x86)/Arm GNU Toolchain arm-none-eabi/14.3 rel1/arm-none-eabi/include/c++/14.3.1/bits\stl_iterator.h **** namespace std _GLIBCXX_VISIBILITY(default)
  86:C:/Program Files (x86)/Arm GNU Toolchain arm-none-eabi/14.3 rel1/arm-none-eabi/include/c++/14.3.1/bits\stl_iterator.h **** {
  87:C:/Program Files (x86)/Arm GNU Toolchain arm-none-eabi/14.3 rel1/arm-none-eabi/include/c++/14.3.1/bits\stl_iterator.h **** _GLIBCXX_BEGIN_NAMESPACE_VERSION
  88:C:/Program Files (x86)/Arm GNU Toolchain arm-none-eabi/14.3 rel1/arm-none-eabi/include/c++/14.3.1/bits\stl_iterator.h **** 
  89:C:/Program Files (x86)/Arm GNU Toolchain arm-none-eabi/14.3 rel1/arm-none-eabi/include/c++/14.3.1/bits\stl_iterator.h ****   /**
  90:C:/Program Files (x86)/Arm GNU Toolchain arm-none-eabi/14.3 rel1/arm-none-eabi/include/c++/14.3.1/bits\stl_iterator.h ****    * @addtogroup iterators
  91:C:/Program Files (x86)/Arm GNU Toolchain arm-none-eabi/14.3 rel1/arm-none-eabi/include/c++/14.3.1/bits\stl_iterator.h ****    * @{
  92:C:/Program Files (x86)/Arm GNU Toolchain arm-none-eabi/14.3 rel1/arm-none-eabi/include/c++/14.3.1/bits\stl_iterator.h ****    */
  93:C:/Program Files (x86)/Arm GNU Toolchain arm-none-eabi/14.3 rel1/arm-none-eabi/include/c++/14.3.1/bits\stl_iterator.h **** 
  94:C:/Program Files (x86)/Arm GNU Toolchain arm-none-eabi/14.3 rel1/arm-none-eabi/include/c++/14.3.1/bits\stl_iterator.h **** #if __glibcxx_concepts
  95:C:/Program Files (x86)/Arm GNU Toolchain arm-none-eabi/14.3 rel1/arm-none-eabi/include/c++/14.3.1/bits\stl_iterator.h ****   namespace __detail
  96:C:/Program Files (x86)/Arm GNU Toolchain arm-none-eabi/14.3 rel1/arm-none-eabi/include/c++/14.3.1/bits\stl_iterator.h ****   {
  97:C:/Program Files (x86)/Arm GNU Toolchain arm-none-eabi/14.3 rel1/arm-none-eabi/include/c++/14.3.1/bits\stl_iterator.h ****     // Weaken iterator_category _Cat to _Limit if it is derived from that,
  98:C:/Program Files (x86)/Arm GNU Toolchain arm-none-eabi/14.3 rel1/arm-none-eabi/include/c++/14.3.1/bits\stl_iterator.h ****     // otherwise use _Otherwise.
  99:C:/Program Files (x86)/Arm GNU Toolchain arm-none-eabi/14.3 rel1/arm-none-eabi/include/c++/14.3.1/bits\stl_iterator.h ****     template<typename _Cat, typename _Limit, typename _Otherwise = _Cat>
 100:C:/Program Files (x86)/Arm GNU Toolchain arm-none-eabi/14.3 rel1/arm-none-eabi/include/c++/14.3.1/bits\stl_iterator.h ****       using __clamp_iter_cat
 101:C:/Program Files (x86)/Arm GNU Toolchain arm-none-eabi/14.3 rel1/arm-none-eabi/include/c++/14.3.1/bits\stl_iterator.h **** 	= __conditional_t<derived_from<_Cat, _Limit>, _Limit, _Otherwise>;
 102:C:/Program Files (x86)/Arm GNU Toolchain arm-none-eabi/14.3 rel1/arm-none-eabi/include/c++/14.3.1/bits\stl_iterator.h ****   }
 103:C:/Program Files (x86)/Arm GNU Toolchain arm-none-eabi/14.3 rel1/arm-none-eabi/include/c++/14.3.1/bits\stl_iterator.h **** #endif
 104:C:/Program Files (x86)/Arm GNU Toolchain arm-none-eabi/14.3 rel1/arm-none-eabi/include/c++/14.3.1/bits\stl_iterator.h **** 
 105:C:/Program Files (x86)/Arm GNU Toolchain arm-none-eabi/14.3 rel1/arm-none-eabi/include/c++/14.3.1/bits\stl_iterator.h **** // Ignore warnings about std::iterator.
 106:C:/Program Files (x86)/Arm GNU Toolchain arm-none-eabi/14.3 rel1/arm-none-eabi/include/c++/14.3.1/bits\stl_iterator.h **** #pragma GCC diagnostic push
 107:C:/Program Files (x86)/Arm GNU Toolchain arm-none-eabi/14.3 rel1/arm-none-eabi/include/c++/14.3.1/bits\stl_iterator.h **** #pragma GCC diagnostic ignored "-Wdeprecated-declarations"
 108:C:/Program Files (x86)/Arm GNU Toolchain arm-none-eabi/14.3 rel1/arm-none-eabi/include/c++/14.3.1/bits\stl_iterator.h **** 
 109:C:/Program Files (x86)/Arm GNU Toolchain arm-none-eabi/14.3 rel1/arm-none-eabi/include/c++/14.3.1/bits\stl_iterator.h ****   // 24.4.1 Reverse iterators
ARM GAS  C:\Users\Oliver\AppData\Local\Temp\ccdKDjJp.s 			page 34


 110:C:/Program Files (x86)/Arm GNU Toolchain arm-none-eabi/14.3 rel1/arm-none-eabi/include/c++/14.3.1/bits\stl_iterator.h ****   /**
 111:C:/Program Files (x86)/Arm GNU Toolchain arm-none-eabi/14.3 rel1/arm-none-eabi/include/c++/14.3.1/bits\stl_iterator.h ****    *  Bidirectional and random access iterators have corresponding reverse
 112:C:/Program Files (x86)/Arm GNU Toolchain arm-none-eabi/14.3 rel1/arm-none-eabi/include/c++/14.3.1/bits\stl_iterator.h ****    *  %iterator adaptors that iterate through the data structure in the
 113:C:/Program Files (x86)/Arm GNU Toolchain arm-none-eabi/14.3 rel1/arm-none-eabi/include/c++/14.3.1/bits\stl_iterator.h ****    *  opposite direction.  They have the same signatures as the corresponding
 114:C:/Program Files (x86)/Arm GNU Toolchain arm-none-eabi/14.3 rel1/arm-none-eabi/include/c++/14.3.1/bits\stl_iterator.h ****    *  iterators.  The fundamental relation between a reverse %iterator and its
 115:C:/Program Files (x86)/Arm GNU Toolchain arm-none-eabi/14.3 rel1/arm-none-eabi/include/c++/14.3.1/bits\stl_iterator.h ****    *  corresponding %iterator @c i is established by the identity:
 116:C:/Program Files (x86)/Arm GNU Toolchain arm-none-eabi/14.3 rel1/arm-none-eabi/include/c++/14.3.1/bits\stl_iterator.h ****    *  @code
 117:C:/Program Files (x86)/Arm GNU Toolchain arm-none-eabi/14.3 rel1/arm-none-eabi/include/c++/14.3.1/bits\stl_iterator.h ****    *      &*(reverse_iterator(i)) == &*(i - 1)
 118:C:/Program Files (x86)/Arm GNU Toolchain arm-none-eabi/14.3 rel1/arm-none-eabi/include/c++/14.3.1/bits\stl_iterator.h ****    *  @endcode
 119:C:/Program Files (x86)/Arm GNU Toolchain arm-none-eabi/14.3 rel1/arm-none-eabi/include/c++/14.3.1/bits\stl_iterator.h ****    *
 120:C:/Program Files (x86)/Arm GNU Toolchain arm-none-eabi/14.3 rel1/arm-none-eabi/include/c++/14.3.1/bits\stl_iterator.h ****    *  <em>This mapping is dictated by the fact that while there is always a
 121:C:/Program Files (x86)/Arm GNU Toolchain arm-none-eabi/14.3 rel1/arm-none-eabi/include/c++/14.3.1/bits\stl_iterator.h ****    *  pointer past the end of an array, there might not be a valid pointer
 122:C:/Program Files (x86)/Arm GNU Toolchain arm-none-eabi/14.3 rel1/arm-none-eabi/include/c++/14.3.1/bits\stl_iterator.h ****    *  before the beginning of an array.</em> [24.4.1]/1,2
 123:C:/Program Files (x86)/Arm GNU Toolchain arm-none-eabi/14.3 rel1/arm-none-eabi/include/c++/14.3.1/bits\stl_iterator.h ****    *
 124:C:/Program Files (x86)/Arm GNU Toolchain arm-none-eabi/14.3 rel1/arm-none-eabi/include/c++/14.3.1/bits\stl_iterator.h ****    *  Reverse iterators can be tricky and surprising at first.  Their
 125:C:/Program Files (x86)/Arm GNU Toolchain arm-none-eabi/14.3 rel1/arm-none-eabi/include/c++/14.3.1/bits\stl_iterator.h ****    *  semantics make sense, however, and the trickiness is a side effect of
 126:C:/Program Files (x86)/Arm GNU Toolchain arm-none-eabi/14.3 rel1/arm-none-eabi/include/c++/14.3.1/bits\stl_iterator.h ****    *  the requirement that the iterators must be safe.
 127:C:/Program Files (x86)/Arm GNU Toolchain arm-none-eabi/14.3 rel1/arm-none-eabi/include/c++/14.3.1/bits\stl_iterator.h ****   */
 128:C:/Program Files (x86)/Arm GNU Toolchain arm-none-eabi/14.3 rel1/arm-none-eabi/include/c++/14.3.1/bits\stl_iterator.h ****   template<typename _Iterator>
 129:C:/Program Files (x86)/Arm GNU Toolchain arm-none-eabi/14.3 rel1/arm-none-eabi/include/c++/14.3.1/bits\stl_iterator.h ****     class reverse_iterator
 130:C:/Program Files (x86)/Arm GNU Toolchain arm-none-eabi/14.3 rel1/arm-none-eabi/include/c++/14.3.1/bits\stl_iterator.h ****     : public iterator<typename iterator_traits<_Iterator>::iterator_category,
 131:C:/Program Files (x86)/Arm GNU Toolchain arm-none-eabi/14.3 rel1/arm-none-eabi/include/c++/14.3.1/bits\stl_iterator.h **** 		      typename iterator_traits<_Iterator>::value_type,
 132:C:/Program Files (x86)/Arm GNU Toolchain arm-none-eabi/14.3 rel1/arm-none-eabi/include/c++/14.3.1/bits\stl_iterator.h **** 		      typename iterator_traits<_Iterator>::difference_type,
 133:C:/Program Files (x86)/Arm GNU Toolchain arm-none-eabi/14.3 rel1/arm-none-eabi/include/c++/14.3.1/bits\stl_iterator.h **** 		      typename iterator_traits<_Iterator>::pointer,
 134:C:/Program Files (x86)/Arm GNU Toolchain arm-none-eabi/14.3 rel1/arm-none-eabi/include/c++/14.3.1/bits\stl_iterator.h ****                       typename iterator_traits<_Iterator>::reference>
 135:C:/Program Files (x86)/Arm GNU Toolchain arm-none-eabi/14.3 rel1/arm-none-eabi/include/c++/14.3.1/bits\stl_iterator.h ****     {
 136:C:/Program Files (x86)/Arm GNU Toolchain arm-none-eabi/14.3 rel1/arm-none-eabi/include/c++/14.3.1/bits\stl_iterator.h ****       template<typename _Iter>
 137:C:/Program Files (x86)/Arm GNU Toolchain arm-none-eabi/14.3 rel1/arm-none-eabi/include/c++/14.3.1/bits\stl_iterator.h **** 	friend class reverse_iterator;
 138:C:/Program Files (x86)/Arm GNU Toolchain arm-none-eabi/14.3 rel1/arm-none-eabi/include/c++/14.3.1/bits\stl_iterator.h **** 
 139:C:/Program Files (x86)/Arm GNU Toolchain arm-none-eabi/14.3 rel1/arm-none-eabi/include/c++/14.3.1/bits\stl_iterator.h **** #if __glibcxx_concepts
 140:C:/Program Files (x86)/Arm GNU Toolchain arm-none-eabi/14.3 rel1/arm-none-eabi/include/c++/14.3.1/bits\stl_iterator.h ****       // _GLIBCXX_RESOLVE_LIB_DEFECTS
 141:C:/Program Files (x86)/Arm GNU Toolchain arm-none-eabi/14.3 rel1/arm-none-eabi/include/c++/14.3.1/bits\stl_iterator.h ****       // 3435. three_way_comparable_with<reverse_iterator<int*>, [...]>
 142:C:/Program Files (x86)/Arm GNU Toolchain arm-none-eabi/14.3 rel1/arm-none-eabi/include/c++/14.3.1/bits\stl_iterator.h ****       template<typename _Iter>
 143:C:/Program Files (x86)/Arm GNU Toolchain arm-none-eabi/14.3 rel1/arm-none-eabi/include/c++/14.3.1/bits\stl_iterator.h **** 	static constexpr bool __convertible = !is_same_v<_Iter, _Iterator>
 144:C:/Program Files (x86)/Arm GNU Toolchain arm-none-eabi/14.3 rel1/arm-none-eabi/include/c++/14.3.1/bits\stl_iterator.h **** 	    && convertible_to<const _Iter&, _Iterator>;
 145:C:/Program Files (x86)/Arm GNU Toolchain arm-none-eabi/14.3 rel1/arm-none-eabi/include/c++/14.3.1/bits\stl_iterator.h **** #endif
 146:C:/Program Files (x86)/Arm GNU Toolchain arm-none-eabi/14.3 rel1/arm-none-eabi/include/c++/14.3.1/bits\stl_iterator.h **** 
 147:C:/Program Files (x86)/Arm GNU Toolchain arm-none-eabi/14.3 rel1/arm-none-eabi/include/c++/14.3.1/bits\stl_iterator.h ****     protected:
 148:C:/Program Files (x86)/Arm GNU Toolchain arm-none-eabi/14.3 rel1/arm-none-eabi/include/c++/14.3.1/bits\stl_iterator.h ****       _Iterator current;
 149:C:/Program Files (x86)/Arm GNU Toolchain arm-none-eabi/14.3 rel1/arm-none-eabi/include/c++/14.3.1/bits\stl_iterator.h **** 
 150:C:/Program Files (x86)/Arm GNU Toolchain arm-none-eabi/14.3 rel1/arm-none-eabi/include/c++/14.3.1/bits\stl_iterator.h ****       typedef iterator_traits<_Iterator>		__traits_type;
 151:C:/Program Files (x86)/Arm GNU Toolchain arm-none-eabi/14.3 rel1/arm-none-eabi/include/c++/14.3.1/bits\stl_iterator.h **** 
 152:C:/Program Files (x86)/Arm GNU Toolchain arm-none-eabi/14.3 rel1/arm-none-eabi/include/c++/14.3.1/bits\stl_iterator.h ****     public:
 153:C:/Program Files (x86)/Arm GNU Toolchain arm-none-eabi/14.3 rel1/arm-none-eabi/include/c++/14.3.1/bits\stl_iterator.h ****       typedef _Iterator					iterator_type;
 154:C:/Program Files (x86)/Arm GNU Toolchain arm-none-eabi/14.3 rel1/arm-none-eabi/include/c++/14.3.1/bits\stl_iterator.h ****       typedef typename __traits_type::pointer		pointer;
 155:C:/Program Files (x86)/Arm GNU Toolchain arm-none-eabi/14.3 rel1/arm-none-eabi/include/c++/14.3.1/bits\stl_iterator.h **** #if ! __glibcxx_concepts
 156:C:/Program Files (x86)/Arm GNU Toolchain arm-none-eabi/14.3 rel1/arm-none-eabi/include/c++/14.3.1/bits\stl_iterator.h ****       typedef typename __traits_type::difference_type	difference_type;
 157:C:/Program Files (x86)/Arm GNU Toolchain arm-none-eabi/14.3 rel1/arm-none-eabi/include/c++/14.3.1/bits\stl_iterator.h ****       typedef typename __traits_type::reference		reference;
 158:C:/Program Files (x86)/Arm GNU Toolchain arm-none-eabi/14.3 rel1/arm-none-eabi/include/c++/14.3.1/bits\stl_iterator.h **** #else
 159:C:/Program Files (x86)/Arm GNU Toolchain arm-none-eabi/14.3 rel1/arm-none-eabi/include/c++/14.3.1/bits\stl_iterator.h ****       using iterator_concept
 160:C:/Program Files (x86)/Arm GNU Toolchain arm-none-eabi/14.3 rel1/arm-none-eabi/include/c++/14.3.1/bits\stl_iterator.h **** 	= __conditional_t<random_access_iterator<_Iterator>,
 161:C:/Program Files (x86)/Arm GNU Toolchain arm-none-eabi/14.3 rel1/arm-none-eabi/include/c++/14.3.1/bits\stl_iterator.h **** 			  random_access_iterator_tag,
 162:C:/Program Files (x86)/Arm GNU Toolchain arm-none-eabi/14.3 rel1/arm-none-eabi/include/c++/14.3.1/bits\stl_iterator.h **** 			  bidirectional_iterator_tag>;
 163:C:/Program Files (x86)/Arm GNU Toolchain arm-none-eabi/14.3 rel1/arm-none-eabi/include/c++/14.3.1/bits\stl_iterator.h ****       using iterator_category
 164:C:/Program Files (x86)/Arm GNU Toolchain arm-none-eabi/14.3 rel1/arm-none-eabi/include/c++/14.3.1/bits\stl_iterator.h **** 	= __detail::__clamp_iter_cat<typename __traits_type::iterator_category,
 165:C:/Program Files (x86)/Arm GNU Toolchain arm-none-eabi/14.3 rel1/arm-none-eabi/include/c++/14.3.1/bits\stl_iterator.h **** 				     random_access_iterator_tag>;
 166:C:/Program Files (x86)/Arm GNU Toolchain arm-none-eabi/14.3 rel1/arm-none-eabi/include/c++/14.3.1/bits\stl_iterator.h ****       using value_type = iter_value_t<_Iterator>;
ARM GAS  C:\Users\Oliver\AppData\Local\Temp\ccdKDjJp.s 			page 35


 167:C:/Program Files (x86)/Arm GNU Toolchain arm-none-eabi/14.3 rel1/arm-none-eabi/include/c++/14.3.1/bits\stl_iterator.h ****       using difference_type = iter_difference_t<_Iterator>;
 168:C:/Program Files (x86)/Arm GNU Toolchain arm-none-eabi/14.3 rel1/arm-none-eabi/include/c++/14.3.1/bits\stl_iterator.h ****       using reference = iter_reference_t<_Iterator>;
 169:C:/Program Files (x86)/Arm GNU Toolchain arm-none-eabi/14.3 rel1/arm-none-eabi/include/c++/14.3.1/bits\stl_iterator.h **** #endif
 170:C:/Program Files (x86)/Arm GNU Toolchain arm-none-eabi/14.3 rel1/arm-none-eabi/include/c++/14.3.1/bits\stl_iterator.h **** 
 171:C:/Program Files (x86)/Arm GNU Toolchain arm-none-eabi/14.3 rel1/arm-none-eabi/include/c++/14.3.1/bits\stl_iterator.h ****       /**
 172:C:/Program Files (x86)/Arm GNU Toolchain arm-none-eabi/14.3 rel1/arm-none-eabi/include/c++/14.3.1/bits\stl_iterator.h ****        *  The default constructor value-initializes member @p current.
 173:C:/Program Files (x86)/Arm GNU Toolchain arm-none-eabi/14.3 rel1/arm-none-eabi/include/c++/14.3.1/bits\stl_iterator.h ****        *  If it is a pointer, that means it is zero-initialized.
 174:C:/Program Files (x86)/Arm GNU Toolchain arm-none-eabi/14.3 rel1/arm-none-eabi/include/c++/14.3.1/bits\stl_iterator.h ****       */
 175:C:/Program Files (x86)/Arm GNU Toolchain arm-none-eabi/14.3 rel1/arm-none-eabi/include/c++/14.3.1/bits\stl_iterator.h ****       // _GLIBCXX_RESOLVE_LIB_DEFECTS
 176:C:/Program Files (x86)/Arm GNU Toolchain arm-none-eabi/14.3 rel1/arm-none-eabi/include/c++/14.3.1/bits\stl_iterator.h ****       // 235 No specification of default ctor for reverse_iterator
 177:C:/Program Files (x86)/Arm GNU Toolchain arm-none-eabi/14.3 rel1/arm-none-eabi/include/c++/14.3.1/bits\stl_iterator.h ****       // 1012. reverse_iterator default ctor should value initialize
 178:C:/Program Files (x86)/Arm GNU Toolchain arm-none-eabi/14.3 rel1/arm-none-eabi/include/c++/14.3.1/bits\stl_iterator.h ****       _GLIBCXX17_CONSTEXPR
 179:C:/Program Files (x86)/Arm GNU Toolchain arm-none-eabi/14.3 rel1/arm-none-eabi/include/c++/14.3.1/bits\stl_iterator.h ****       reverse_iterator()
 180:C:/Program Files (x86)/Arm GNU Toolchain arm-none-eabi/14.3 rel1/arm-none-eabi/include/c++/14.3.1/bits\stl_iterator.h ****       _GLIBCXX_NOEXCEPT_IF(noexcept(_Iterator()))
 181:C:/Program Files (x86)/Arm GNU Toolchain arm-none-eabi/14.3 rel1/arm-none-eabi/include/c++/14.3.1/bits\stl_iterator.h ****       : current()
 182:C:/Program Files (x86)/Arm GNU Toolchain arm-none-eabi/14.3 rel1/arm-none-eabi/include/c++/14.3.1/bits\stl_iterator.h ****       { }
 183:C:/Program Files (x86)/Arm GNU Toolchain arm-none-eabi/14.3 rel1/arm-none-eabi/include/c++/14.3.1/bits\stl_iterator.h **** 
 184:C:/Program Files (x86)/Arm GNU Toolchain arm-none-eabi/14.3 rel1/arm-none-eabi/include/c++/14.3.1/bits\stl_iterator.h ****       /**
 185:C:/Program Files (x86)/Arm GNU Toolchain arm-none-eabi/14.3 rel1/arm-none-eabi/include/c++/14.3.1/bits\stl_iterator.h ****        *  This %iterator will move in the opposite direction that @p x does.
 186:C:/Program Files (x86)/Arm GNU Toolchain arm-none-eabi/14.3 rel1/arm-none-eabi/include/c++/14.3.1/bits\stl_iterator.h ****       */
 187:C:/Program Files (x86)/Arm GNU Toolchain arm-none-eabi/14.3 rel1/arm-none-eabi/include/c++/14.3.1/bits\stl_iterator.h ****       explicit _GLIBCXX17_CONSTEXPR
 188:C:/Program Files (x86)/Arm GNU Toolchain arm-none-eabi/14.3 rel1/arm-none-eabi/include/c++/14.3.1/bits\stl_iterator.h ****       reverse_iterator(iterator_type __x)
 189:C:/Program Files (x86)/Arm GNU Toolchain arm-none-eabi/14.3 rel1/arm-none-eabi/include/c++/14.3.1/bits\stl_iterator.h ****       _GLIBCXX_NOEXCEPT_IF(noexcept(_Iterator(__x)))
 190:C:/Program Files (x86)/Arm GNU Toolchain arm-none-eabi/14.3 rel1/arm-none-eabi/include/c++/14.3.1/bits\stl_iterator.h ****       : current(__x)
 191:C:/Program Files (x86)/Arm GNU Toolchain arm-none-eabi/14.3 rel1/arm-none-eabi/include/c++/14.3.1/bits\stl_iterator.h ****       { }
 192:C:/Program Files (x86)/Arm GNU Toolchain arm-none-eabi/14.3 rel1/arm-none-eabi/include/c++/14.3.1/bits\stl_iterator.h **** 
 193:C:/Program Files (x86)/Arm GNU Toolchain arm-none-eabi/14.3 rel1/arm-none-eabi/include/c++/14.3.1/bits\stl_iterator.h ****       /**
 194:C:/Program Files (x86)/Arm GNU Toolchain arm-none-eabi/14.3 rel1/arm-none-eabi/include/c++/14.3.1/bits\stl_iterator.h ****        *  The copy constructor is normal.
 195:C:/Program Files (x86)/Arm GNU Toolchain arm-none-eabi/14.3 rel1/arm-none-eabi/include/c++/14.3.1/bits\stl_iterator.h ****       */
 196:C:/Program Files (x86)/Arm GNU Toolchain arm-none-eabi/14.3 rel1/arm-none-eabi/include/c++/14.3.1/bits\stl_iterator.h ****       _GLIBCXX17_CONSTEXPR
 197:C:/Program Files (x86)/Arm GNU Toolchain arm-none-eabi/14.3 rel1/arm-none-eabi/include/c++/14.3.1/bits\stl_iterator.h ****       reverse_iterator(const reverse_iterator& __x)
 198:C:/Program Files (x86)/Arm GNU Toolchain arm-none-eabi/14.3 rel1/arm-none-eabi/include/c++/14.3.1/bits\stl_iterator.h ****       _GLIBCXX_NOEXCEPT_IF(noexcept(_Iterator(__x.current)))
 199:C:/Program Files (x86)/Arm GNU Toolchain arm-none-eabi/14.3 rel1/arm-none-eabi/include/c++/14.3.1/bits\stl_iterator.h ****       : current(__x.current)
 200:C:/Program Files (x86)/Arm GNU Toolchain arm-none-eabi/14.3 rel1/arm-none-eabi/include/c++/14.3.1/bits\stl_iterator.h ****       { }
 201:C:/Program Files (x86)/Arm GNU Toolchain arm-none-eabi/14.3 rel1/arm-none-eabi/include/c++/14.3.1/bits\stl_iterator.h **** 
 202:C:/Program Files (x86)/Arm GNU Toolchain arm-none-eabi/14.3 rel1/arm-none-eabi/include/c++/14.3.1/bits\stl_iterator.h **** #if __cplusplus >= 201103L
 203:C:/Program Files (x86)/Arm GNU Toolchain arm-none-eabi/14.3 rel1/arm-none-eabi/include/c++/14.3.1/bits\stl_iterator.h ****       reverse_iterator& operator=(const reverse_iterator&) = default;
 204:C:/Program Files (x86)/Arm GNU Toolchain arm-none-eabi/14.3 rel1/arm-none-eabi/include/c++/14.3.1/bits\stl_iterator.h **** #endif
 205:C:/Program Files (x86)/Arm GNU Toolchain arm-none-eabi/14.3 rel1/arm-none-eabi/include/c++/14.3.1/bits\stl_iterator.h **** 
 206:C:/Program Files (x86)/Arm GNU Toolchain arm-none-eabi/14.3 rel1/arm-none-eabi/include/c++/14.3.1/bits\stl_iterator.h ****       /**
 207:C:/Program Files (x86)/Arm GNU Toolchain arm-none-eabi/14.3 rel1/arm-none-eabi/include/c++/14.3.1/bits\stl_iterator.h ****        *  A %reverse_iterator across other types can be copied if the
 208:C:/Program Files (x86)/Arm GNU Toolchain arm-none-eabi/14.3 rel1/arm-none-eabi/include/c++/14.3.1/bits\stl_iterator.h ****        *  underlying %iterator can be converted to the type of @c current.
 209:C:/Program Files (x86)/Arm GNU Toolchain arm-none-eabi/14.3 rel1/arm-none-eabi/include/c++/14.3.1/bits\stl_iterator.h ****       */
 210:C:/Program Files (x86)/Arm GNU Toolchain arm-none-eabi/14.3 rel1/arm-none-eabi/include/c++/14.3.1/bits\stl_iterator.h ****       template<typename _Iter>
 211:C:/Program Files (x86)/Arm GNU Toolchain arm-none-eabi/14.3 rel1/arm-none-eabi/include/c++/14.3.1/bits\stl_iterator.h **** #if __glibcxx_concepts
 212:C:/Program Files (x86)/Arm GNU Toolchain arm-none-eabi/14.3 rel1/arm-none-eabi/include/c++/14.3.1/bits\stl_iterator.h **** 	requires __convertible<_Iter>
 213:C:/Program Files (x86)/Arm GNU Toolchain arm-none-eabi/14.3 rel1/arm-none-eabi/include/c++/14.3.1/bits\stl_iterator.h **** #endif
 214:C:/Program Files (x86)/Arm GNU Toolchain arm-none-eabi/14.3 rel1/arm-none-eabi/include/c++/14.3.1/bits\stl_iterator.h **** 	_GLIBCXX17_CONSTEXPR
 215:C:/Program Files (x86)/Arm GNU Toolchain arm-none-eabi/14.3 rel1/arm-none-eabi/include/c++/14.3.1/bits\stl_iterator.h ****         reverse_iterator(const reverse_iterator<_Iter>& __x)
 216:C:/Program Files (x86)/Arm GNU Toolchain arm-none-eabi/14.3 rel1/arm-none-eabi/include/c++/14.3.1/bits\stl_iterator.h **** 	_GLIBCXX_NOEXCEPT_IF(noexcept(_Iterator(__x.current)))
 217:C:/Program Files (x86)/Arm GNU Toolchain arm-none-eabi/14.3 rel1/arm-none-eabi/include/c++/14.3.1/bits\stl_iterator.h **** 	: current(__x.current)
 218:C:/Program Files (x86)/Arm GNU Toolchain arm-none-eabi/14.3 rel1/arm-none-eabi/include/c++/14.3.1/bits\stl_iterator.h **** 	{ }
 219:C:/Program Files (x86)/Arm GNU Toolchain arm-none-eabi/14.3 rel1/arm-none-eabi/include/c++/14.3.1/bits\stl_iterator.h **** 
 220:C:/Program Files (x86)/Arm GNU Toolchain arm-none-eabi/14.3 rel1/arm-none-eabi/include/c++/14.3.1/bits\stl_iterator.h **** #if __cplusplus >= 201103L
 221:C:/Program Files (x86)/Arm GNU Toolchain arm-none-eabi/14.3 rel1/arm-none-eabi/include/c++/14.3.1/bits\stl_iterator.h ****       template<typename _Iter>
 222:C:/Program Files (x86)/Arm GNU Toolchain arm-none-eabi/14.3 rel1/arm-none-eabi/include/c++/14.3.1/bits\stl_iterator.h **** #if __glibcxx_concepts
 223:C:/Program Files (x86)/Arm GNU Toolchain arm-none-eabi/14.3 rel1/arm-none-eabi/include/c++/14.3.1/bits\stl_iterator.h **** 	requires __convertible<_Iter>
ARM GAS  C:\Users\Oliver\AppData\Local\Temp\ccdKDjJp.s 			page 36


 224:C:/Program Files (x86)/Arm GNU Toolchain arm-none-eabi/14.3 rel1/arm-none-eabi/include/c++/14.3.1/bits\stl_iterator.h **** 	  && assignable_from<_Iterator&, const _Iter&>
 225:C:/Program Files (x86)/Arm GNU Toolchain arm-none-eabi/14.3 rel1/arm-none-eabi/include/c++/14.3.1/bits\stl_iterator.h **** #endif
 226:C:/Program Files (x86)/Arm GNU Toolchain arm-none-eabi/14.3 rel1/arm-none-eabi/include/c++/14.3.1/bits\stl_iterator.h **** 	_GLIBCXX17_CONSTEXPR
 227:C:/Program Files (x86)/Arm GNU Toolchain arm-none-eabi/14.3 rel1/arm-none-eabi/include/c++/14.3.1/bits\stl_iterator.h **** 	reverse_iterator&
 228:C:/Program Files (x86)/Arm GNU Toolchain arm-none-eabi/14.3 rel1/arm-none-eabi/include/c++/14.3.1/bits\stl_iterator.h **** 	operator=(const reverse_iterator<_Iter>& __x)
 229:C:/Program Files (x86)/Arm GNU Toolchain arm-none-eabi/14.3 rel1/arm-none-eabi/include/c++/14.3.1/bits\stl_iterator.h **** 	_GLIBCXX_NOEXCEPT_IF(noexcept(current = __x.current))
 230:C:/Program Files (x86)/Arm GNU Toolchain arm-none-eabi/14.3 rel1/arm-none-eabi/include/c++/14.3.1/bits\stl_iterator.h **** 	{
 231:C:/Program Files (x86)/Arm GNU Toolchain arm-none-eabi/14.3 rel1/arm-none-eabi/include/c++/14.3.1/bits\stl_iterator.h **** 	  current = __x.current;
 232:C:/Program Files (x86)/Arm GNU Toolchain arm-none-eabi/14.3 rel1/arm-none-eabi/include/c++/14.3.1/bits\stl_iterator.h **** 	  return *this;
 233:C:/Program Files (x86)/Arm GNU Toolchain arm-none-eabi/14.3 rel1/arm-none-eabi/include/c++/14.3.1/bits\stl_iterator.h **** 	}
 234:C:/Program Files (x86)/Arm GNU Toolchain arm-none-eabi/14.3 rel1/arm-none-eabi/include/c++/14.3.1/bits\stl_iterator.h **** #endif
 235:C:/Program Files (x86)/Arm GNU Toolchain arm-none-eabi/14.3 rel1/arm-none-eabi/include/c++/14.3.1/bits\stl_iterator.h **** 
 236:C:/Program Files (x86)/Arm GNU Toolchain arm-none-eabi/14.3 rel1/arm-none-eabi/include/c++/14.3.1/bits\stl_iterator.h ****       /**
 237:C:/Program Files (x86)/Arm GNU Toolchain arm-none-eabi/14.3 rel1/arm-none-eabi/include/c++/14.3.1/bits\stl_iterator.h ****        *  @return  @c current, the %iterator used for underlying work.
 238:C:/Program Files (x86)/Arm GNU Toolchain arm-none-eabi/14.3 rel1/arm-none-eabi/include/c++/14.3.1/bits\stl_iterator.h ****       */
 239:C:/Program Files (x86)/Arm GNU Toolchain arm-none-eabi/14.3 rel1/arm-none-eabi/include/c++/14.3.1/bits\stl_iterator.h ****       _GLIBCXX_NODISCARD
 240:C:/Program Files (x86)/Arm GNU Toolchain arm-none-eabi/14.3 rel1/arm-none-eabi/include/c++/14.3.1/bits\stl_iterator.h ****       _GLIBCXX17_CONSTEXPR iterator_type
 241:C:/Program Files (x86)/Arm GNU Toolchain arm-none-eabi/14.3 rel1/arm-none-eabi/include/c++/14.3.1/bits\stl_iterator.h ****       base() const
 242:C:/Program Files (x86)/Arm GNU Toolchain arm-none-eabi/14.3 rel1/arm-none-eabi/include/c++/14.3.1/bits\stl_iterator.h ****       _GLIBCXX_NOEXCEPT_IF(noexcept(_Iterator(current)))
 243:C:/Program Files (x86)/Arm GNU Toolchain arm-none-eabi/14.3 rel1/arm-none-eabi/include/c++/14.3.1/bits\stl_iterator.h ****       { return current; }
 244:C:/Program Files (x86)/Arm GNU Toolchain arm-none-eabi/14.3 rel1/arm-none-eabi/include/c++/14.3.1/bits\stl_iterator.h **** 
 245:C:/Program Files (x86)/Arm GNU Toolchain arm-none-eabi/14.3 rel1/arm-none-eabi/include/c++/14.3.1/bits\stl_iterator.h ****       /**
 246:C:/Program Files (x86)/Arm GNU Toolchain arm-none-eabi/14.3 rel1/arm-none-eabi/include/c++/14.3.1/bits\stl_iterator.h ****        *  @return  A reference to the value at @c --current
 247:C:/Program Files (x86)/Arm GNU Toolchain arm-none-eabi/14.3 rel1/arm-none-eabi/include/c++/14.3.1/bits\stl_iterator.h ****        *
 248:C:/Program Files (x86)/Arm GNU Toolchain arm-none-eabi/14.3 rel1/arm-none-eabi/include/c++/14.3.1/bits\stl_iterator.h ****        *  This requires that @c --current is dereferenceable.
 249:C:/Program Files (x86)/Arm GNU Toolchain arm-none-eabi/14.3 rel1/arm-none-eabi/include/c++/14.3.1/bits\stl_iterator.h ****        *
 250:C:/Program Files (x86)/Arm GNU Toolchain arm-none-eabi/14.3 rel1/arm-none-eabi/include/c++/14.3.1/bits\stl_iterator.h ****        *  @warning This implementation requires that for an iterator of the
 251:C:/Program Files (x86)/Arm GNU Toolchain arm-none-eabi/14.3 rel1/arm-none-eabi/include/c++/14.3.1/bits\stl_iterator.h ****        *           underlying iterator type, @c x, a reference obtained by
 252:C:/Program Files (x86)/Arm GNU Toolchain arm-none-eabi/14.3 rel1/arm-none-eabi/include/c++/14.3.1/bits\stl_iterator.h ****        *           @c *x remains valid after @c x has been modified or
 253:C:/Program Files (x86)/Arm GNU Toolchain arm-none-eabi/14.3 rel1/arm-none-eabi/include/c++/14.3.1/bits\stl_iterator.h ****        *           destroyed. This is a bug: http://gcc.gnu.org/PR51823
 254:C:/Program Files (x86)/Arm GNU Toolchain arm-none-eabi/14.3 rel1/arm-none-eabi/include/c++/14.3.1/bits\stl_iterator.h ****       */
 255:C:/Program Files (x86)/Arm GNU Toolchain arm-none-eabi/14.3 rel1/arm-none-eabi/include/c++/14.3.1/bits\stl_iterator.h ****       _GLIBCXX_NODISCARD
 256:C:/Program Files (x86)/Arm GNU Toolchain arm-none-eabi/14.3 rel1/arm-none-eabi/include/c++/14.3.1/bits\stl_iterator.h ****       _GLIBCXX17_CONSTEXPR reference
 257:C:/Program Files (x86)/Arm GNU Toolchain arm-none-eabi/14.3 rel1/arm-none-eabi/include/c++/14.3.1/bits\stl_iterator.h ****       operator*() const
 258:C:/Program Files (x86)/Arm GNU Toolchain arm-none-eabi/14.3 rel1/arm-none-eabi/include/c++/14.3.1/bits\stl_iterator.h ****       {
 259:C:/Program Files (x86)/Arm GNU Toolchain arm-none-eabi/14.3 rel1/arm-none-eabi/include/c++/14.3.1/bits\stl_iterator.h **** 	_Iterator __tmp = current;
 260:C:/Program Files (x86)/Arm GNU Toolchain arm-none-eabi/14.3 rel1/arm-none-eabi/include/c++/14.3.1/bits\stl_iterator.h **** 	return *--__tmp;
 261:C:/Program Files (x86)/Arm GNU Toolchain arm-none-eabi/14.3 rel1/arm-none-eabi/include/c++/14.3.1/bits\stl_iterator.h ****       }
 262:C:/Program Files (x86)/Arm GNU Toolchain arm-none-eabi/14.3 rel1/arm-none-eabi/include/c++/14.3.1/bits\stl_iterator.h **** 
 263:C:/Program Files (x86)/Arm GNU Toolchain arm-none-eabi/14.3 rel1/arm-none-eabi/include/c++/14.3.1/bits\stl_iterator.h ****       /**
 264:C:/Program Files (x86)/Arm GNU Toolchain arm-none-eabi/14.3 rel1/arm-none-eabi/include/c++/14.3.1/bits\stl_iterator.h ****        *  @return  A pointer to the value at @c --current
 265:C:/Program Files (x86)/Arm GNU Toolchain arm-none-eabi/14.3 rel1/arm-none-eabi/include/c++/14.3.1/bits\stl_iterator.h ****        *
 266:C:/Program Files (x86)/Arm GNU Toolchain arm-none-eabi/14.3 rel1/arm-none-eabi/include/c++/14.3.1/bits\stl_iterator.h ****        *  This requires that @c --current is dereferenceable.
 267:C:/Program Files (x86)/Arm GNU Toolchain arm-none-eabi/14.3 rel1/arm-none-eabi/include/c++/14.3.1/bits\stl_iterator.h ****       */
 268:C:/Program Files (x86)/Arm GNU Toolchain arm-none-eabi/14.3 rel1/arm-none-eabi/include/c++/14.3.1/bits\stl_iterator.h ****       _GLIBCXX_NODISCARD
 269:C:/Program Files (x86)/Arm GNU Toolchain arm-none-eabi/14.3 rel1/arm-none-eabi/include/c++/14.3.1/bits\stl_iterator.h ****       _GLIBCXX17_CONSTEXPR pointer
 270:C:/Program Files (x86)/Arm GNU Toolchain arm-none-eabi/14.3 rel1/arm-none-eabi/include/c++/14.3.1/bits\stl_iterator.h ****       operator->() const
 271:C:/Program Files (x86)/Arm GNU Toolchain arm-none-eabi/14.3 rel1/arm-none-eabi/include/c++/14.3.1/bits\stl_iterator.h **** #if __cplusplus > 201703L && __cpp_concepts >= 201907L
 272:C:/Program Files (x86)/Arm GNU Toolchain arm-none-eabi/14.3 rel1/arm-none-eabi/include/c++/14.3.1/bits\stl_iterator.h ****       requires is_pointer_v<_Iterator>
 273:C:/Program Files (x86)/Arm GNU Toolchain arm-none-eabi/14.3 rel1/arm-none-eabi/include/c++/14.3.1/bits\stl_iterator.h **** 	|| requires(const _Iterator __i) { __i.operator->(); }
 274:C:/Program Files (x86)/Arm GNU Toolchain arm-none-eabi/14.3 rel1/arm-none-eabi/include/c++/14.3.1/bits\stl_iterator.h **** #endif
 275:C:/Program Files (x86)/Arm GNU Toolchain arm-none-eabi/14.3 rel1/arm-none-eabi/include/c++/14.3.1/bits\stl_iterator.h ****       {
 276:C:/Program Files (x86)/Arm GNU Toolchain arm-none-eabi/14.3 rel1/arm-none-eabi/include/c++/14.3.1/bits\stl_iterator.h **** 	// _GLIBCXX_RESOLVE_LIB_DEFECTS
 277:C:/Program Files (x86)/Arm GNU Toolchain arm-none-eabi/14.3 rel1/arm-none-eabi/include/c++/14.3.1/bits\stl_iterator.h **** 	// 1052. operator-> should also support smart pointers
 278:C:/Program Files (x86)/Arm GNU Toolchain arm-none-eabi/14.3 rel1/arm-none-eabi/include/c++/14.3.1/bits\stl_iterator.h **** 	_Iterator __tmp = current;
 279:C:/Program Files (x86)/Arm GNU Toolchain arm-none-eabi/14.3 rel1/arm-none-eabi/include/c++/14.3.1/bits\stl_iterator.h **** 	--__tmp;
 280:C:/Program Files (x86)/Arm GNU Toolchain arm-none-eabi/14.3 rel1/arm-none-eabi/include/c++/14.3.1/bits\stl_iterator.h **** 	return _S_to_pointer(__tmp);
ARM GAS  C:\Users\Oliver\AppData\Local\Temp\ccdKDjJp.s 			page 37


 281:C:/Program Files (x86)/Arm GNU Toolchain arm-none-eabi/14.3 rel1/arm-none-eabi/include/c++/14.3.1/bits\stl_iterator.h ****       }
 282:C:/Program Files (x86)/Arm GNU Toolchain arm-none-eabi/14.3 rel1/arm-none-eabi/include/c++/14.3.1/bits\stl_iterator.h **** 
 283:C:/Program Files (x86)/Arm GNU Toolchain arm-none-eabi/14.3 rel1/arm-none-eabi/include/c++/14.3.1/bits\stl_iterator.h ****       /**
 284:C:/Program Files (x86)/Arm GNU Toolchain arm-none-eabi/14.3 rel1/arm-none-eabi/include/c++/14.3.1/bits\stl_iterator.h ****        *  @return  @c *this
 285:C:/Program Files (x86)/Arm GNU Toolchain arm-none-eabi/14.3 rel1/arm-none-eabi/include/c++/14.3.1/bits\stl_iterator.h ****        *
 286:C:/Program Files (x86)/Arm GNU Toolchain arm-none-eabi/14.3 rel1/arm-none-eabi/include/c++/14.3.1/bits\stl_iterator.h ****        *  Decrements the underlying iterator.
 287:C:/Program Files (x86)/Arm GNU Toolchain arm-none-eabi/14.3 rel1/arm-none-eabi/include/c++/14.3.1/bits\stl_iterator.h ****       */
 288:C:/Program Files (x86)/Arm GNU Toolchain arm-none-eabi/14.3 rel1/arm-none-eabi/include/c++/14.3.1/bits\stl_iterator.h ****       _GLIBCXX17_CONSTEXPR reverse_iterator&
 289:C:/Program Files (x86)/Arm GNU Toolchain arm-none-eabi/14.3 rel1/arm-none-eabi/include/c++/14.3.1/bits\stl_iterator.h ****       operator++()
 290:C:/Program Files (x86)/Arm GNU Toolchain arm-none-eabi/14.3 rel1/arm-none-eabi/include/c++/14.3.1/bits\stl_iterator.h ****       {
 291:C:/Program Files (x86)/Arm GNU Toolchain arm-none-eabi/14.3 rel1/arm-none-eabi/include/c++/14.3.1/bits\stl_iterator.h **** 	--current;
 292:C:/Program Files (x86)/Arm GNU Toolchain arm-none-eabi/14.3 rel1/arm-none-eabi/include/c++/14.3.1/bits\stl_iterator.h **** 	return *this;
 293:C:/Program Files (x86)/Arm GNU Toolchain arm-none-eabi/14.3 rel1/arm-none-eabi/include/c++/14.3.1/bits\stl_iterator.h ****       }
 294:C:/Program Files (x86)/Arm GNU Toolchain arm-none-eabi/14.3 rel1/arm-none-eabi/include/c++/14.3.1/bits\stl_iterator.h **** 
 295:C:/Program Files (x86)/Arm GNU Toolchain arm-none-eabi/14.3 rel1/arm-none-eabi/include/c++/14.3.1/bits\stl_iterator.h ****       /**
 296:C:/Program Files (x86)/Arm GNU Toolchain arm-none-eabi/14.3 rel1/arm-none-eabi/include/c++/14.3.1/bits\stl_iterator.h ****        *  @return  The original value of @c *this
 297:C:/Program Files (x86)/Arm GNU Toolchain arm-none-eabi/14.3 rel1/arm-none-eabi/include/c++/14.3.1/bits\stl_iterator.h ****        *
 298:C:/Program Files (x86)/Arm GNU Toolchain arm-none-eabi/14.3 rel1/arm-none-eabi/include/c++/14.3.1/bits\stl_iterator.h ****        *  Decrements the underlying iterator.
 299:C:/Program Files (x86)/Arm GNU Toolchain arm-none-eabi/14.3 rel1/arm-none-eabi/include/c++/14.3.1/bits\stl_iterator.h ****       */
 300:C:/Program Files (x86)/Arm GNU Toolchain arm-none-eabi/14.3 rel1/arm-none-eabi/include/c++/14.3.1/bits\stl_iterator.h ****       _GLIBCXX17_CONSTEXPR reverse_iterator
 301:C:/Program Files (x86)/Arm GNU Toolchain arm-none-eabi/14.3 rel1/arm-none-eabi/include/c++/14.3.1/bits\stl_iterator.h ****       operator++(int)
 302:C:/Program Files (x86)/Arm GNU Toolchain arm-none-eabi/14.3 rel1/arm-none-eabi/include/c++/14.3.1/bits\stl_iterator.h ****       {
 303:C:/Program Files (x86)/Arm GNU Toolchain arm-none-eabi/14.3 rel1/arm-none-eabi/include/c++/14.3.1/bits\stl_iterator.h **** 	reverse_iterator __tmp = *this;
 304:C:/Program Files (x86)/Arm GNU Toolchain arm-none-eabi/14.3 rel1/arm-none-eabi/include/c++/14.3.1/bits\stl_iterator.h **** 	--current;
 305:C:/Program Files (x86)/Arm GNU Toolchain arm-none-eabi/14.3 rel1/arm-none-eabi/include/c++/14.3.1/bits\stl_iterator.h **** 	return __tmp;
 306:C:/Program Files (x86)/Arm GNU Toolchain arm-none-eabi/14.3 rel1/arm-none-eabi/include/c++/14.3.1/bits\stl_iterator.h ****       }
 307:C:/Program Files (x86)/Arm GNU Toolchain arm-none-eabi/14.3 rel1/arm-none-eabi/include/c++/14.3.1/bits\stl_iterator.h **** 
 308:C:/Program Files (x86)/Arm GNU Toolchain arm-none-eabi/14.3 rel1/arm-none-eabi/include/c++/14.3.1/bits\stl_iterator.h ****       /**
 309:C:/Program Files (x86)/Arm GNU Toolchain arm-none-eabi/14.3 rel1/arm-none-eabi/include/c++/14.3.1/bits\stl_iterator.h ****        *  @return  @c *this
 310:C:/Program Files (x86)/Arm GNU Toolchain arm-none-eabi/14.3 rel1/arm-none-eabi/include/c++/14.3.1/bits\stl_iterator.h ****        *
 311:C:/Program Files (x86)/Arm GNU Toolchain arm-none-eabi/14.3 rel1/arm-none-eabi/include/c++/14.3.1/bits\stl_iterator.h ****        *  Increments the underlying iterator.
 312:C:/Program Files (x86)/Arm GNU Toolchain arm-none-eabi/14.3 rel1/arm-none-eabi/include/c++/14.3.1/bits\stl_iterator.h ****       */
 313:C:/Program Files (x86)/Arm GNU Toolchain arm-none-eabi/14.3 rel1/arm-none-eabi/include/c++/14.3.1/bits\stl_iterator.h ****       _GLIBCXX17_CONSTEXPR reverse_iterator&
 314:C:/Program Files (x86)/Arm GNU Toolchain arm-none-eabi/14.3 rel1/arm-none-eabi/include/c++/14.3.1/bits\stl_iterator.h ****       operator--()
 315:C:/Program Files (x86)/Arm GNU Toolchain arm-none-eabi/14.3 rel1/arm-none-eabi/include/c++/14.3.1/bits\stl_iterator.h ****       {
 316:C:/Program Files (x86)/Arm GNU Toolchain arm-none-eabi/14.3 rel1/arm-none-eabi/include/c++/14.3.1/bits\stl_iterator.h **** 	++current;
 317:C:/Program Files (x86)/Arm GNU Toolchain arm-none-eabi/14.3 rel1/arm-none-eabi/include/c++/14.3.1/bits\stl_iterator.h **** 	return *this;
 318:C:/Program Files (x86)/Arm GNU Toolchain arm-none-eabi/14.3 rel1/arm-none-eabi/include/c++/14.3.1/bits\stl_iterator.h ****       }
 319:C:/Program Files (x86)/Arm GNU Toolchain arm-none-eabi/14.3 rel1/arm-none-eabi/include/c++/14.3.1/bits\stl_iterator.h **** 
 320:C:/Program Files (x86)/Arm GNU Toolchain arm-none-eabi/14.3 rel1/arm-none-eabi/include/c++/14.3.1/bits\stl_iterator.h ****       /**
 321:C:/Program Files (x86)/Arm GNU Toolchain arm-none-eabi/14.3 rel1/arm-none-eabi/include/c++/14.3.1/bits\stl_iterator.h ****        *  @return  A reverse_iterator with the previous value of @c *this
 322:C:/Program Files (x86)/Arm GNU Toolchain arm-none-eabi/14.3 rel1/arm-none-eabi/include/c++/14.3.1/bits\stl_iterator.h ****        *
 323:C:/Program Files (x86)/Arm GNU Toolchain arm-none-eabi/14.3 rel1/arm-none-eabi/include/c++/14.3.1/bits\stl_iterator.h ****        *  Increments the underlying iterator.
 324:C:/Program Files (x86)/Arm GNU Toolchain arm-none-eabi/14.3 rel1/arm-none-eabi/include/c++/14.3.1/bits\stl_iterator.h ****       */
 325:C:/Program Files (x86)/Arm GNU Toolchain arm-none-eabi/14.3 rel1/arm-none-eabi/include/c++/14.3.1/bits\stl_iterator.h ****       _GLIBCXX17_CONSTEXPR reverse_iterator
 326:C:/Program Files (x86)/Arm GNU Toolchain arm-none-eabi/14.3 rel1/arm-none-eabi/include/c++/14.3.1/bits\stl_iterator.h ****       operator--(int)
 327:C:/Program Files (x86)/Arm GNU Toolchain arm-none-eabi/14.3 rel1/arm-none-eabi/include/c++/14.3.1/bits\stl_iterator.h ****       {
 328:C:/Program Files (x86)/Arm GNU Toolchain arm-none-eabi/14.3 rel1/arm-none-eabi/include/c++/14.3.1/bits\stl_iterator.h **** 	reverse_iterator __tmp = *this;
 329:C:/Program Files (x86)/Arm GNU Toolchain arm-none-eabi/14.3 rel1/arm-none-eabi/include/c++/14.3.1/bits\stl_iterator.h **** 	++current;
 330:C:/Program Files (x86)/Arm GNU Toolchain arm-none-eabi/14.3 rel1/arm-none-eabi/include/c++/14.3.1/bits\stl_iterator.h **** 	return __tmp;
 331:C:/Program Files (x86)/Arm GNU Toolchain arm-none-eabi/14.3 rel1/arm-none-eabi/include/c++/14.3.1/bits\stl_iterator.h ****       }
 332:C:/Program Files (x86)/Arm GNU Toolchain arm-none-eabi/14.3 rel1/arm-none-eabi/include/c++/14.3.1/bits\stl_iterator.h **** 
 333:C:/Program Files (x86)/Arm GNU Toolchain arm-none-eabi/14.3 rel1/arm-none-eabi/include/c++/14.3.1/bits\stl_iterator.h ****       /**
 334:C:/Program Files (x86)/Arm GNU Toolchain arm-none-eabi/14.3 rel1/arm-none-eabi/include/c++/14.3.1/bits\stl_iterator.h ****        *  @return  A reverse_iterator that refers to @c current - @a __n
 335:C:/Program Files (x86)/Arm GNU Toolchain arm-none-eabi/14.3 rel1/arm-none-eabi/include/c++/14.3.1/bits\stl_iterator.h ****        *
 336:C:/Program Files (x86)/Arm GNU Toolchain arm-none-eabi/14.3 rel1/arm-none-eabi/include/c++/14.3.1/bits\stl_iterator.h ****        *  The underlying iterator must be a Random Access Iterator.
 337:C:/Program Files (x86)/Arm GNU Toolchain arm-none-eabi/14.3 rel1/arm-none-eabi/include/c++/14.3.1/bits\stl_iterator.h ****       */
ARM GAS  C:\Users\Oliver\AppData\Local\Temp\ccdKDjJp.s 			page 38


 338:C:/Program Files (x86)/Arm GNU Toolchain arm-none-eabi/14.3 rel1/arm-none-eabi/include/c++/14.3.1/bits\stl_iterator.h ****       _GLIBCXX_NODISCARD
 339:C:/Program Files (x86)/Arm GNU Toolchain arm-none-eabi/14.3 rel1/arm-none-eabi/include/c++/14.3.1/bits\stl_iterator.h ****       _GLIBCXX17_CONSTEXPR reverse_iterator
 340:C:/Program Files (x86)/Arm GNU Toolchain arm-none-eabi/14.3 rel1/arm-none-eabi/include/c++/14.3.1/bits\stl_iterator.h ****       operator+(difference_type __n) const
 341:C:/Program Files (x86)/Arm GNU Toolchain arm-none-eabi/14.3 rel1/arm-none-eabi/include/c++/14.3.1/bits\stl_iterator.h ****       { return reverse_iterator(current - __n); }
 342:C:/Program Files (x86)/Arm GNU Toolchain arm-none-eabi/14.3 rel1/arm-none-eabi/include/c++/14.3.1/bits\stl_iterator.h **** 
 343:C:/Program Files (x86)/Arm GNU Toolchain arm-none-eabi/14.3 rel1/arm-none-eabi/include/c++/14.3.1/bits\stl_iterator.h ****       /**
 344:C:/Program Files (x86)/Arm GNU Toolchain arm-none-eabi/14.3 rel1/arm-none-eabi/include/c++/14.3.1/bits\stl_iterator.h ****        *  @return  *this
 345:C:/Program Files (x86)/Arm GNU Toolchain arm-none-eabi/14.3 rel1/arm-none-eabi/include/c++/14.3.1/bits\stl_iterator.h ****        *
 346:C:/Program Files (x86)/Arm GNU Toolchain arm-none-eabi/14.3 rel1/arm-none-eabi/include/c++/14.3.1/bits\stl_iterator.h ****        *  Moves the underlying iterator backwards @a __n steps.
 347:C:/Program Files (x86)/Arm GNU Toolchain arm-none-eabi/14.3 rel1/arm-none-eabi/include/c++/14.3.1/bits\stl_iterator.h ****        *  The underlying iterator must be a Random Access Iterator.
 348:C:/Program Files (x86)/Arm GNU Toolchain arm-none-eabi/14.3 rel1/arm-none-eabi/include/c++/14.3.1/bits\stl_iterator.h ****       */
 349:C:/Program Files (x86)/Arm GNU Toolchain arm-none-eabi/14.3 rel1/arm-none-eabi/include/c++/14.3.1/bits\stl_iterator.h ****       _GLIBCXX17_CONSTEXPR reverse_iterator&
 350:C:/Program Files (x86)/Arm GNU Toolchain arm-none-eabi/14.3 rel1/arm-none-eabi/include/c++/14.3.1/bits\stl_iterator.h ****       operator+=(difference_type __n)
 351:C:/Program Files (x86)/Arm GNU Toolchain arm-none-eabi/14.3 rel1/arm-none-eabi/include/c++/14.3.1/bits\stl_iterator.h ****       {
 352:C:/Program Files (x86)/Arm GNU Toolchain arm-none-eabi/14.3 rel1/arm-none-eabi/include/c++/14.3.1/bits\stl_iterator.h **** 	current -= __n;
 353:C:/Program Files (x86)/Arm GNU Toolchain arm-none-eabi/14.3 rel1/arm-none-eabi/include/c++/14.3.1/bits\stl_iterator.h **** 	return *this;
 354:C:/Program Files (x86)/Arm GNU Toolchain arm-none-eabi/14.3 rel1/arm-none-eabi/include/c++/14.3.1/bits\stl_iterator.h ****       }
 355:C:/Program Files (x86)/Arm GNU Toolchain arm-none-eabi/14.3 rel1/arm-none-eabi/include/c++/14.3.1/bits\stl_iterator.h **** 
 356:C:/Program Files (x86)/Arm GNU Toolchain arm-none-eabi/14.3 rel1/arm-none-eabi/include/c++/14.3.1/bits\stl_iterator.h ****       /**
 357:C:/Program Files (x86)/Arm GNU Toolchain arm-none-eabi/14.3 rel1/arm-none-eabi/include/c++/14.3.1/bits\stl_iterator.h ****        *  @return  A reverse_iterator that refers to @c current - @a __n
 358:C:/Program Files (x86)/Arm GNU Toolchain arm-none-eabi/14.3 rel1/arm-none-eabi/include/c++/14.3.1/bits\stl_iterator.h ****        *
 359:C:/Program Files (x86)/Arm GNU Toolchain arm-none-eabi/14.3 rel1/arm-none-eabi/include/c++/14.3.1/bits\stl_iterator.h ****        *  The underlying iterator must be a Random Access Iterator.
 360:C:/Program Files (x86)/Arm GNU Toolchain arm-none-eabi/14.3 rel1/arm-none-eabi/include/c++/14.3.1/bits\stl_iterator.h ****       */
 361:C:/Program Files (x86)/Arm GNU Toolchain arm-none-eabi/14.3 rel1/arm-none-eabi/include/c++/14.3.1/bits\stl_iterator.h ****       _GLIBCXX_NODISCARD
 362:C:/Program Files (x86)/Arm GNU Toolchain arm-none-eabi/14.3 rel1/arm-none-eabi/include/c++/14.3.1/bits\stl_iterator.h ****       _GLIBCXX17_CONSTEXPR reverse_iterator
 363:C:/Program Files (x86)/Arm GNU Toolchain arm-none-eabi/14.3 rel1/arm-none-eabi/include/c++/14.3.1/bits\stl_iterator.h ****       operator-(difference_type __n) const
 364:C:/Program Files (x86)/Arm GNU Toolchain arm-none-eabi/14.3 rel1/arm-none-eabi/include/c++/14.3.1/bits\stl_iterator.h ****       { return reverse_iterator(current + __n); }
 365:C:/Program Files (x86)/Arm GNU Toolchain arm-none-eabi/14.3 rel1/arm-none-eabi/include/c++/14.3.1/bits\stl_iterator.h **** 
 366:C:/Program Files (x86)/Arm GNU Toolchain arm-none-eabi/14.3 rel1/arm-none-eabi/include/c++/14.3.1/bits\stl_iterator.h ****       /**
 367:C:/Program Files (x86)/Arm GNU Toolchain arm-none-eabi/14.3 rel1/arm-none-eabi/include/c++/14.3.1/bits\stl_iterator.h ****        *  @return  *this
 368:C:/Program Files (x86)/Arm GNU Toolchain arm-none-eabi/14.3 rel1/arm-none-eabi/include/c++/14.3.1/bits\stl_iterator.h ****        *
 369:C:/Program Files (x86)/Arm GNU Toolchain arm-none-eabi/14.3 rel1/arm-none-eabi/include/c++/14.3.1/bits\stl_iterator.h ****        *  Moves the underlying iterator forwards @a __n steps.
 370:C:/Program Files (x86)/Arm GNU Toolchain arm-none-eabi/14.3 rel1/arm-none-eabi/include/c++/14.3.1/bits\stl_iterator.h ****        *  The underlying iterator must be a Random Access Iterator.
 371:C:/Program Files (x86)/Arm GNU Toolchain arm-none-eabi/14.3 rel1/arm-none-eabi/include/c++/14.3.1/bits\stl_iterator.h ****       */
 372:C:/Program Files (x86)/Arm GNU Toolchain arm-none-eabi/14.3 rel1/arm-none-eabi/include/c++/14.3.1/bits\stl_iterator.h ****       _GLIBCXX17_CONSTEXPR reverse_iterator&
 373:C:/Program Files (x86)/Arm GNU Toolchain arm-none-eabi/14.3 rel1/arm-none-eabi/include/c++/14.3.1/bits\stl_iterator.h ****       operator-=(difference_type __n)
 374:C:/Program Files (x86)/Arm GNU Toolchain arm-none-eabi/14.3 rel1/arm-none-eabi/include/c++/14.3.1/bits\stl_iterator.h ****       {
 375:C:/Program Files (x86)/Arm GNU Toolchain arm-none-eabi/14.3 rel1/arm-none-eabi/include/c++/14.3.1/bits\stl_iterator.h **** 	current += __n;
 376:C:/Program Files (x86)/Arm GNU Toolchain arm-none-eabi/14.3 rel1/arm-none-eabi/include/c++/14.3.1/bits\stl_iterator.h **** 	return *this;
 377:C:/Program Files (x86)/Arm GNU Toolchain arm-none-eabi/14.3 rel1/arm-none-eabi/include/c++/14.3.1/bits\stl_iterator.h ****       }
 378:C:/Program Files (x86)/Arm GNU Toolchain arm-none-eabi/14.3 rel1/arm-none-eabi/include/c++/14.3.1/bits\stl_iterator.h **** 
 379:C:/Program Files (x86)/Arm GNU Toolchain arm-none-eabi/14.3 rel1/arm-none-eabi/include/c++/14.3.1/bits\stl_iterator.h ****       /**
 380:C:/Program Files (x86)/Arm GNU Toolchain arm-none-eabi/14.3 rel1/arm-none-eabi/include/c++/14.3.1/bits\stl_iterator.h ****        *  @return  The value at @c current - @a __n - 1
 381:C:/Program Files (x86)/Arm GNU Toolchain arm-none-eabi/14.3 rel1/arm-none-eabi/include/c++/14.3.1/bits\stl_iterator.h ****        *
 382:C:/Program Files (x86)/Arm GNU Toolchain arm-none-eabi/14.3 rel1/arm-none-eabi/include/c++/14.3.1/bits\stl_iterator.h ****        *  The underlying iterator must be a Random Access Iterator.
 383:C:/Program Files (x86)/Arm GNU Toolchain arm-none-eabi/14.3 rel1/arm-none-eabi/include/c++/14.3.1/bits\stl_iterator.h ****       */
 384:C:/Program Files (x86)/Arm GNU Toolchain arm-none-eabi/14.3 rel1/arm-none-eabi/include/c++/14.3.1/bits\stl_iterator.h ****       _GLIBCXX_NODISCARD
 385:C:/Program Files (x86)/Arm GNU Toolchain arm-none-eabi/14.3 rel1/arm-none-eabi/include/c++/14.3.1/bits\stl_iterator.h ****       _GLIBCXX17_CONSTEXPR reference
 386:C:/Program Files (x86)/Arm GNU Toolchain arm-none-eabi/14.3 rel1/arm-none-eabi/include/c++/14.3.1/bits\stl_iterator.h ****       operator[](difference_type __n) const
 387:C:/Program Files (x86)/Arm GNU Toolchain arm-none-eabi/14.3 rel1/arm-none-eabi/include/c++/14.3.1/bits\stl_iterator.h ****       { return *(*this + __n); }
 388:C:/Program Files (x86)/Arm GNU Toolchain arm-none-eabi/14.3 rel1/arm-none-eabi/include/c++/14.3.1/bits\stl_iterator.h **** 
 389:C:/Program Files (x86)/Arm GNU Toolchain arm-none-eabi/14.3 rel1/arm-none-eabi/include/c++/14.3.1/bits\stl_iterator.h **** #if __cplusplus > 201703L && __glibcxx_concepts
 390:C:/Program Files (x86)/Arm GNU Toolchain arm-none-eabi/14.3 rel1/arm-none-eabi/include/c++/14.3.1/bits\stl_iterator.h ****       [[nodiscard]]
 391:C:/Program Files (x86)/Arm GNU Toolchain arm-none-eabi/14.3 rel1/arm-none-eabi/include/c++/14.3.1/bits\stl_iterator.h ****       friend constexpr iter_rvalue_reference_t<_Iterator>
 392:C:/Program Files (x86)/Arm GNU Toolchain arm-none-eabi/14.3 rel1/arm-none-eabi/include/c++/14.3.1/bits\stl_iterator.h ****       iter_move(const reverse_iterator& __i)
 393:C:/Program Files (x86)/Arm GNU Toolchain arm-none-eabi/14.3 rel1/arm-none-eabi/include/c++/14.3.1/bits\stl_iterator.h ****       noexcept(is_nothrow_copy_constructible_v<_Iterator>
 394:C:/Program Files (x86)/Arm GNU Toolchain arm-none-eabi/14.3 rel1/arm-none-eabi/include/c++/14.3.1/bits\stl_iterator.h **** 	       && noexcept(ranges::iter_move(--std::declval<_Iterator&>())))
ARM GAS  C:\Users\Oliver\AppData\Local\Temp\ccdKDjJp.s 			page 39


 395:C:/Program Files (x86)/Arm GNU Toolchain arm-none-eabi/14.3 rel1/arm-none-eabi/include/c++/14.3.1/bits\stl_iterator.h ****       {
 396:C:/Program Files (x86)/Arm GNU Toolchain arm-none-eabi/14.3 rel1/arm-none-eabi/include/c++/14.3.1/bits\stl_iterator.h **** 	auto __tmp = __i.base();
 397:C:/Program Files (x86)/Arm GNU Toolchain arm-none-eabi/14.3 rel1/arm-none-eabi/include/c++/14.3.1/bits\stl_iterator.h **** 	return ranges::iter_move(--__tmp);
 398:C:/Program Files (x86)/Arm GNU Toolchain arm-none-eabi/14.3 rel1/arm-none-eabi/include/c++/14.3.1/bits\stl_iterator.h ****       }
 399:C:/Program Files (x86)/Arm GNU Toolchain arm-none-eabi/14.3 rel1/arm-none-eabi/include/c++/14.3.1/bits\stl_iterator.h **** 
 400:C:/Program Files (x86)/Arm GNU Toolchain arm-none-eabi/14.3 rel1/arm-none-eabi/include/c++/14.3.1/bits\stl_iterator.h ****       template<indirectly_swappable<_Iterator> _Iter2>
 401:C:/Program Files (x86)/Arm GNU Toolchain arm-none-eabi/14.3 rel1/arm-none-eabi/include/c++/14.3.1/bits\stl_iterator.h **** 	friend constexpr void
 402:C:/Program Files (x86)/Arm GNU Toolchain arm-none-eabi/14.3 rel1/arm-none-eabi/include/c++/14.3.1/bits\stl_iterator.h **** 	iter_swap(const reverse_iterator& __x,
 403:C:/Program Files (x86)/Arm GNU Toolchain arm-none-eabi/14.3 rel1/arm-none-eabi/include/c++/14.3.1/bits\stl_iterator.h **** 		  const reverse_iterator<_Iter2>& __y)
 404:C:/Program Files (x86)/Arm GNU Toolchain arm-none-eabi/14.3 rel1/arm-none-eabi/include/c++/14.3.1/bits\stl_iterator.h **** 	noexcept(is_nothrow_copy_constructible_v<_Iterator>
 405:C:/Program Files (x86)/Arm GNU Toolchain arm-none-eabi/14.3 rel1/arm-none-eabi/include/c++/14.3.1/bits\stl_iterator.h **** 		 && is_nothrow_copy_constructible_v<_Iter2>
 406:C:/Program Files (x86)/Arm GNU Toolchain arm-none-eabi/14.3 rel1/arm-none-eabi/include/c++/14.3.1/bits\stl_iterator.h **** 		 && noexcept(ranges::iter_swap(--std::declval<_Iterator&>(),
 407:C:/Program Files (x86)/Arm GNU Toolchain arm-none-eabi/14.3 rel1/arm-none-eabi/include/c++/14.3.1/bits\stl_iterator.h **** 					       --std::declval<_Iter2&>())))
 408:C:/Program Files (x86)/Arm GNU Toolchain arm-none-eabi/14.3 rel1/arm-none-eabi/include/c++/14.3.1/bits\stl_iterator.h **** 	{
 409:C:/Program Files (x86)/Arm GNU Toolchain arm-none-eabi/14.3 rel1/arm-none-eabi/include/c++/14.3.1/bits\stl_iterator.h **** 	  auto __xtmp = __x.base();
 410:C:/Program Files (x86)/Arm GNU Toolchain arm-none-eabi/14.3 rel1/arm-none-eabi/include/c++/14.3.1/bits\stl_iterator.h **** 	  auto __ytmp = __y.base();
 411:C:/Program Files (x86)/Arm GNU Toolchain arm-none-eabi/14.3 rel1/arm-none-eabi/include/c++/14.3.1/bits\stl_iterator.h **** 	  ranges::iter_swap(--__xtmp, --__ytmp);
 412:C:/Program Files (x86)/Arm GNU Toolchain arm-none-eabi/14.3 rel1/arm-none-eabi/include/c++/14.3.1/bits\stl_iterator.h **** 	}
 413:C:/Program Files (x86)/Arm GNU Toolchain arm-none-eabi/14.3 rel1/arm-none-eabi/include/c++/14.3.1/bits\stl_iterator.h **** #endif
 414:C:/Program Files (x86)/Arm GNU Toolchain arm-none-eabi/14.3 rel1/arm-none-eabi/include/c++/14.3.1/bits\stl_iterator.h **** 
 415:C:/Program Files (x86)/Arm GNU Toolchain arm-none-eabi/14.3 rel1/arm-none-eabi/include/c++/14.3.1/bits\stl_iterator.h ****     private:
 416:C:/Program Files (x86)/Arm GNU Toolchain arm-none-eabi/14.3 rel1/arm-none-eabi/include/c++/14.3.1/bits\stl_iterator.h ****       template<typename _Tp>
 417:C:/Program Files (x86)/Arm GNU Toolchain arm-none-eabi/14.3 rel1/arm-none-eabi/include/c++/14.3.1/bits\stl_iterator.h **** 	static _GLIBCXX17_CONSTEXPR _Tp*
 418:C:/Program Files (x86)/Arm GNU Toolchain arm-none-eabi/14.3 rel1/arm-none-eabi/include/c++/14.3.1/bits\stl_iterator.h **** 	_S_to_pointer(_Tp* __p)
 419:C:/Program Files (x86)/Arm GNU Toolchain arm-none-eabi/14.3 rel1/arm-none-eabi/include/c++/14.3.1/bits\stl_iterator.h ****         { return __p; }
 420:C:/Program Files (x86)/Arm GNU Toolchain arm-none-eabi/14.3 rel1/arm-none-eabi/include/c++/14.3.1/bits\stl_iterator.h **** 
 421:C:/Program Files (x86)/Arm GNU Toolchain arm-none-eabi/14.3 rel1/arm-none-eabi/include/c++/14.3.1/bits\stl_iterator.h ****       template<typename _Tp>
 422:C:/Program Files (x86)/Arm GNU Toolchain arm-none-eabi/14.3 rel1/arm-none-eabi/include/c++/14.3.1/bits\stl_iterator.h **** 	static _GLIBCXX17_CONSTEXPR pointer
 423:C:/Program Files (x86)/Arm GNU Toolchain arm-none-eabi/14.3 rel1/arm-none-eabi/include/c++/14.3.1/bits\stl_iterator.h **** 	_S_to_pointer(_Tp __t)
 424:C:/Program Files (x86)/Arm GNU Toolchain arm-none-eabi/14.3 rel1/arm-none-eabi/include/c++/14.3.1/bits\stl_iterator.h ****         { return __t.operator->(); }
 425:C:/Program Files (x86)/Arm GNU Toolchain arm-none-eabi/14.3 rel1/arm-none-eabi/include/c++/14.3.1/bits\stl_iterator.h ****     };
 426:C:/Program Files (x86)/Arm GNU Toolchain arm-none-eabi/14.3 rel1/arm-none-eabi/include/c++/14.3.1/bits\stl_iterator.h **** 
 427:C:/Program Files (x86)/Arm GNU Toolchain arm-none-eabi/14.3 rel1/arm-none-eabi/include/c++/14.3.1/bits\stl_iterator.h ****   ///@{
 428:C:/Program Files (x86)/Arm GNU Toolchain arm-none-eabi/14.3 rel1/arm-none-eabi/include/c++/14.3.1/bits\stl_iterator.h ****   /**
 429:C:/Program Files (x86)/Arm GNU Toolchain arm-none-eabi/14.3 rel1/arm-none-eabi/include/c++/14.3.1/bits\stl_iterator.h ****    *  @param  __x  A %reverse_iterator.
 430:C:/Program Files (x86)/Arm GNU Toolchain arm-none-eabi/14.3 rel1/arm-none-eabi/include/c++/14.3.1/bits\stl_iterator.h ****    *  @param  __y  A %reverse_iterator.
 431:C:/Program Files (x86)/Arm GNU Toolchain arm-none-eabi/14.3 rel1/arm-none-eabi/include/c++/14.3.1/bits\stl_iterator.h ****    *  @return  A simple bool.
 432:C:/Program Files (x86)/Arm GNU Toolchain arm-none-eabi/14.3 rel1/arm-none-eabi/include/c++/14.3.1/bits\stl_iterator.h ****    *
 433:C:/Program Files (x86)/Arm GNU Toolchain arm-none-eabi/14.3 rel1/arm-none-eabi/include/c++/14.3.1/bits\stl_iterator.h ****    *  Reverse iterators forward comparisons to their underlying base()
 434:C:/Program Files (x86)/Arm GNU Toolchain arm-none-eabi/14.3 rel1/arm-none-eabi/include/c++/14.3.1/bits\stl_iterator.h ****    *  iterators.
 435:C:/Program Files (x86)/Arm GNU Toolchain arm-none-eabi/14.3 rel1/arm-none-eabi/include/c++/14.3.1/bits\stl_iterator.h ****    *
 436:C:/Program Files (x86)/Arm GNU Toolchain arm-none-eabi/14.3 rel1/arm-none-eabi/include/c++/14.3.1/bits\stl_iterator.h ****   */
 437:C:/Program Files (x86)/Arm GNU Toolchain arm-none-eabi/14.3 rel1/arm-none-eabi/include/c++/14.3.1/bits\stl_iterator.h **** #if __cplusplus <= 201703L || ! defined __glibcxx_concepts
 438:C:/Program Files (x86)/Arm GNU Toolchain arm-none-eabi/14.3 rel1/arm-none-eabi/include/c++/14.3.1/bits\stl_iterator.h ****   template<typename _Iterator>
 439:C:/Program Files (x86)/Arm GNU Toolchain arm-none-eabi/14.3 rel1/arm-none-eabi/include/c++/14.3.1/bits\stl_iterator.h ****     _GLIBCXX_NODISCARD
 440:C:/Program Files (x86)/Arm GNU Toolchain arm-none-eabi/14.3 rel1/arm-none-eabi/include/c++/14.3.1/bits\stl_iterator.h ****     inline _GLIBCXX17_CONSTEXPR bool
 441:C:/Program Files (x86)/Arm GNU Toolchain arm-none-eabi/14.3 rel1/arm-none-eabi/include/c++/14.3.1/bits\stl_iterator.h ****     operator==(const reverse_iterator<_Iterator>& __x,
 442:C:/Program Files (x86)/Arm GNU Toolchain arm-none-eabi/14.3 rel1/arm-none-eabi/include/c++/14.3.1/bits\stl_iterator.h **** 	       const reverse_iterator<_Iterator>& __y)
 443:C:/Program Files (x86)/Arm GNU Toolchain arm-none-eabi/14.3 rel1/arm-none-eabi/include/c++/14.3.1/bits\stl_iterator.h ****     { return __x.base() == __y.base(); }
 444:C:/Program Files (x86)/Arm GNU Toolchain arm-none-eabi/14.3 rel1/arm-none-eabi/include/c++/14.3.1/bits\stl_iterator.h **** 
 445:C:/Program Files (x86)/Arm GNU Toolchain arm-none-eabi/14.3 rel1/arm-none-eabi/include/c++/14.3.1/bits\stl_iterator.h ****   template<typename _Iterator>
 446:C:/Program Files (x86)/Arm GNU Toolchain arm-none-eabi/14.3 rel1/arm-none-eabi/include/c++/14.3.1/bits\stl_iterator.h ****     _GLIBCXX_NODISCARD
 447:C:/Program Files (x86)/Arm GNU Toolchain arm-none-eabi/14.3 rel1/arm-none-eabi/include/c++/14.3.1/bits\stl_iterator.h ****     inline _GLIBCXX17_CONSTEXPR bool
 448:C:/Program Files (x86)/Arm GNU Toolchain arm-none-eabi/14.3 rel1/arm-none-eabi/include/c++/14.3.1/bits\stl_iterator.h ****     operator<(const reverse_iterator<_Iterator>& __x,
 449:C:/Program Files (x86)/Arm GNU Toolchain arm-none-eabi/14.3 rel1/arm-none-eabi/include/c++/14.3.1/bits\stl_iterator.h **** 	      const reverse_iterator<_Iterator>& __y)
 450:C:/Program Files (x86)/Arm GNU Toolchain arm-none-eabi/14.3 rel1/arm-none-eabi/include/c++/14.3.1/bits\stl_iterator.h ****     { return __y.base() < __x.base(); }
 451:C:/Program Files (x86)/Arm GNU Toolchain arm-none-eabi/14.3 rel1/arm-none-eabi/include/c++/14.3.1/bits\stl_iterator.h **** 
ARM GAS  C:\Users\Oliver\AppData\Local\Temp\ccdKDjJp.s 			page 40


 452:C:/Program Files (x86)/Arm GNU Toolchain arm-none-eabi/14.3 rel1/arm-none-eabi/include/c++/14.3.1/bits\stl_iterator.h ****   template<typename _Iterator>
 453:C:/Program Files (x86)/Arm GNU Toolchain arm-none-eabi/14.3 rel1/arm-none-eabi/include/c++/14.3.1/bits\stl_iterator.h ****     _GLIBCXX_NODISCARD
 454:C:/Program Files (x86)/Arm GNU Toolchain arm-none-eabi/14.3 rel1/arm-none-eabi/include/c++/14.3.1/bits\stl_iterator.h ****     inline _GLIBCXX17_CONSTEXPR bool
 455:C:/Program Files (x86)/Arm GNU Toolchain arm-none-eabi/14.3 rel1/arm-none-eabi/include/c++/14.3.1/bits\stl_iterator.h ****     operator!=(const reverse_iterator<_Iterator>& __x,
 456:C:/Program Files (x86)/Arm GNU Toolchain arm-none-eabi/14.3 rel1/arm-none-eabi/include/c++/14.3.1/bits\stl_iterator.h **** 	       const reverse_iterator<_Iterator>& __y)
 457:C:/Program Files (x86)/Arm GNU Toolchain arm-none-eabi/14.3 rel1/arm-none-eabi/include/c++/14.3.1/bits\stl_iterator.h ****     { return !(__x == __y); }
 458:C:/Program Files (x86)/Arm GNU Toolchain arm-none-eabi/14.3 rel1/arm-none-eabi/include/c++/14.3.1/bits\stl_iterator.h **** 
 459:C:/Program Files (x86)/Arm GNU Toolchain arm-none-eabi/14.3 rel1/arm-none-eabi/include/c++/14.3.1/bits\stl_iterator.h ****   template<typename _Iterator>
 460:C:/Program Files (x86)/Arm GNU Toolchain arm-none-eabi/14.3 rel1/arm-none-eabi/include/c++/14.3.1/bits\stl_iterator.h ****     _GLIBCXX_NODISCARD
 461:C:/Program Files (x86)/Arm GNU Toolchain arm-none-eabi/14.3 rel1/arm-none-eabi/include/c++/14.3.1/bits\stl_iterator.h ****     inline _GLIBCXX17_CONSTEXPR bool
 462:C:/Program Files (x86)/Arm GNU Toolchain arm-none-eabi/14.3 rel1/arm-none-eabi/include/c++/14.3.1/bits\stl_iterator.h ****     operator>(const reverse_iterator<_Iterator>& __x,
 463:C:/Program Files (x86)/Arm GNU Toolchain arm-none-eabi/14.3 rel1/arm-none-eabi/include/c++/14.3.1/bits\stl_iterator.h **** 	      const reverse_iterator<_Iterator>& __y)
 464:C:/Program Files (x86)/Arm GNU Toolchain arm-none-eabi/14.3 rel1/arm-none-eabi/include/c++/14.3.1/bits\stl_iterator.h ****     { return __y < __x; }
 465:C:/Program Files (x86)/Arm GNU Toolchain arm-none-eabi/14.3 rel1/arm-none-eabi/include/c++/14.3.1/bits\stl_iterator.h **** 
 466:C:/Program Files (x86)/Arm GNU Toolchain arm-none-eabi/14.3 rel1/arm-none-eabi/include/c++/14.3.1/bits\stl_iterator.h ****   template<typename _Iterator>
 467:C:/Program Files (x86)/Arm GNU Toolchain arm-none-eabi/14.3 rel1/arm-none-eabi/include/c++/14.3.1/bits\stl_iterator.h ****     _GLIBCXX_NODISCARD
 468:C:/Program Files (x86)/Arm GNU Toolchain arm-none-eabi/14.3 rel1/arm-none-eabi/include/c++/14.3.1/bits\stl_iterator.h ****     inline _GLIBCXX17_CONSTEXPR bool
 469:C:/Program Files (x86)/Arm GNU Toolchain arm-none-eabi/14.3 rel1/arm-none-eabi/include/c++/14.3.1/bits\stl_iterator.h ****     operator<=(const reverse_iterator<_Iterator>& __x,
 470:C:/Program Files (x86)/Arm GNU Toolchain arm-none-eabi/14.3 rel1/arm-none-eabi/include/c++/14.3.1/bits\stl_iterator.h **** 	       const reverse_iterator<_Iterator>& __y)
 471:C:/Program Files (x86)/Arm GNU Toolchain arm-none-eabi/14.3 rel1/arm-none-eabi/include/c++/14.3.1/bits\stl_iterator.h ****     { return !(__y < __x); }
 472:C:/Program Files (x86)/Arm GNU Toolchain arm-none-eabi/14.3 rel1/arm-none-eabi/include/c++/14.3.1/bits\stl_iterator.h **** 
 473:C:/Program Files (x86)/Arm GNU Toolchain arm-none-eabi/14.3 rel1/arm-none-eabi/include/c++/14.3.1/bits\stl_iterator.h ****   template<typename _Iterator>
 474:C:/Program Files (x86)/Arm GNU Toolchain arm-none-eabi/14.3 rel1/arm-none-eabi/include/c++/14.3.1/bits\stl_iterator.h ****     _GLIBCXX_NODISCARD
 475:C:/Program Files (x86)/Arm GNU Toolchain arm-none-eabi/14.3 rel1/arm-none-eabi/include/c++/14.3.1/bits\stl_iterator.h ****     inline _GLIBCXX17_CONSTEXPR bool
 476:C:/Program Files (x86)/Arm GNU Toolchain arm-none-eabi/14.3 rel1/arm-none-eabi/include/c++/14.3.1/bits\stl_iterator.h ****     operator>=(const reverse_iterator<_Iterator>& __x,
 477:C:/Program Files (x86)/Arm GNU Toolchain arm-none-eabi/14.3 rel1/arm-none-eabi/include/c++/14.3.1/bits\stl_iterator.h **** 	       const reverse_iterator<_Iterator>& __y)
 478:C:/Program Files (x86)/Arm GNU Toolchain arm-none-eabi/14.3 rel1/arm-none-eabi/include/c++/14.3.1/bits\stl_iterator.h ****     { return !(__x < __y); }
 479:C:/Program Files (x86)/Arm GNU Toolchain arm-none-eabi/14.3 rel1/arm-none-eabi/include/c++/14.3.1/bits\stl_iterator.h **** 
 480:C:/Program Files (x86)/Arm GNU Toolchain arm-none-eabi/14.3 rel1/arm-none-eabi/include/c++/14.3.1/bits\stl_iterator.h ****   // _GLIBCXX_RESOLVE_LIB_DEFECTS
 481:C:/Program Files (x86)/Arm GNU Toolchain arm-none-eabi/14.3 rel1/arm-none-eabi/include/c++/14.3.1/bits\stl_iterator.h ****   // DR 280. Comparison of reverse_iterator to const reverse_iterator.
 482:C:/Program Files (x86)/Arm GNU Toolchain arm-none-eabi/14.3 rel1/arm-none-eabi/include/c++/14.3.1/bits\stl_iterator.h **** 
 483:C:/Program Files (x86)/Arm GNU Toolchain arm-none-eabi/14.3 rel1/arm-none-eabi/include/c++/14.3.1/bits\stl_iterator.h ****   template<typename _IteratorL, typename _IteratorR>
 484:C:/Program Files (x86)/Arm GNU Toolchain arm-none-eabi/14.3 rel1/arm-none-eabi/include/c++/14.3.1/bits\stl_iterator.h ****     _GLIBCXX_NODISCARD
 485:C:/Program Files (x86)/Arm GNU Toolchain arm-none-eabi/14.3 rel1/arm-none-eabi/include/c++/14.3.1/bits\stl_iterator.h ****     inline _GLIBCXX17_CONSTEXPR bool
 486:C:/Program Files (x86)/Arm GNU Toolchain arm-none-eabi/14.3 rel1/arm-none-eabi/include/c++/14.3.1/bits\stl_iterator.h ****     operator==(const reverse_iterator<_IteratorL>& __x,
 487:C:/Program Files (x86)/Arm GNU Toolchain arm-none-eabi/14.3 rel1/arm-none-eabi/include/c++/14.3.1/bits\stl_iterator.h **** 	       const reverse_iterator<_IteratorR>& __y)
 488:C:/Program Files (x86)/Arm GNU Toolchain arm-none-eabi/14.3 rel1/arm-none-eabi/include/c++/14.3.1/bits\stl_iterator.h ****     { return __x.base() == __y.base(); }
 489:C:/Program Files (x86)/Arm GNU Toolchain arm-none-eabi/14.3 rel1/arm-none-eabi/include/c++/14.3.1/bits\stl_iterator.h **** 
 490:C:/Program Files (x86)/Arm GNU Toolchain arm-none-eabi/14.3 rel1/arm-none-eabi/include/c++/14.3.1/bits\stl_iterator.h ****   template<typename _IteratorL, typename _IteratorR>
 491:C:/Program Files (x86)/Arm GNU Toolchain arm-none-eabi/14.3 rel1/arm-none-eabi/include/c++/14.3.1/bits\stl_iterator.h ****     _GLIBCXX_NODISCARD
 492:C:/Program Files (x86)/Arm GNU Toolchain arm-none-eabi/14.3 rel1/arm-none-eabi/include/c++/14.3.1/bits\stl_iterator.h ****     inline _GLIBCXX17_CONSTEXPR bool
 493:C:/Program Files (x86)/Arm GNU Toolchain arm-none-eabi/14.3 rel1/arm-none-eabi/include/c++/14.3.1/bits\stl_iterator.h ****     operator<(const reverse_iterator<_IteratorL>& __x,
 494:C:/Program Files (x86)/Arm GNU Toolchain arm-none-eabi/14.3 rel1/arm-none-eabi/include/c++/14.3.1/bits\stl_iterator.h **** 	      const reverse_iterator<_IteratorR>& __y)
 495:C:/Program Files (x86)/Arm GNU Toolchain arm-none-eabi/14.3 rel1/arm-none-eabi/include/c++/14.3.1/bits\stl_iterator.h ****     { return __x.base() > __y.base(); }
 496:C:/Program Files (x86)/Arm GNU Toolchain arm-none-eabi/14.3 rel1/arm-none-eabi/include/c++/14.3.1/bits\stl_iterator.h **** 
 497:C:/Program Files (x86)/Arm GNU Toolchain arm-none-eabi/14.3 rel1/arm-none-eabi/include/c++/14.3.1/bits\stl_iterator.h ****   template<typename _IteratorL, typename _IteratorR>
 498:C:/Program Files (x86)/Arm GNU Toolchain arm-none-eabi/14.3 rel1/arm-none-eabi/include/c++/14.3.1/bits\stl_iterator.h ****     _GLIBCXX_NODISCARD
 499:C:/Program Files (x86)/Arm GNU Toolchain arm-none-eabi/14.3 rel1/arm-none-eabi/include/c++/14.3.1/bits\stl_iterator.h ****     inline _GLIBCXX17_CONSTEXPR bool
 500:C:/Program Files (x86)/Arm GNU Toolchain arm-none-eabi/14.3 rel1/arm-none-eabi/include/c++/14.3.1/bits\stl_iterator.h ****     operator!=(const reverse_iterator<_IteratorL>& __x,
 501:C:/Program Files (x86)/Arm GNU Toolchain arm-none-eabi/14.3 rel1/arm-none-eabi/include/c++/14.3.1/bits\stl_iterator.h **** 	       const reverse_iterator<_IteratorR>& __y)
 502:C:/Program Files (x86)/Arm GNU Toolchain arm-none-eabi/14.3 rel1/arm-none-eabi/include/c++/14.3.1/bits\stl_iterator.h ****     { return __x.base() != __y.base(); }
 503:C:/Program Files (x86)/Arm GNU Toolchain arm-none-eabi/14.3 rel1/arm-none-eabi/include/c++/14.3.1/bits\stl_iterator.h **** 
 504:C:/Program Files (x86)/Arm GNU Toolchain arm-none-eabi/14.3 rel1/arm-none-eabi/include/c++/14.3.1/bits\stl_iterator.h ****   template<typename _IteratorL, typename _IteratorR>
 505:C:/Program Files (x86)/Arm GNU Toolchain arm-none-eabi/14.3 rel1/arm-none-eabi/include/c++/14.3.1/bits\stl_iterator.h ****     _GLIBCXX_NODISCARD
 506:C:/Program Files (x86)/Arm GNU Toolchain arm-none-eabi/14.3 rel1/arm-none-eabi/include/c++/14.3.1/bits\stl_iterator.h ****     inline _GLIBCXX17_CONSTEXPR bool
 507:C:/Program Files (x86)/Arm GNU Toolchain arm-none-eabi/14.3 rel1/arm-none-eabi/include/c++/14.3.1/bits\stl_iterator.h ****     operator>(const reverse_iterator<_IteratorL>& __x,
 508:C:/Program Files (x86)/Arm GNU Toolchain arm-none-eabi/14.3 rel1/arm-none-eabi/include/c++/14.3.1/bits\stl_iterator.h **** 	      const reverse_iterator<_IteratorR>& __y)
ARM GAS  C:\Users\Oliver\AppData\Local\Temp\ccdKDjJp.s 			page 41


 509:C:/Program Files (x86)/Arm GNU Toolchain arm-none-eabi/14.3 rel1/arm-none-eabi/include/c++/14.3.1/bits\stl_iterator.h ****     { return __x.base() < __y.base(); }
 510:C:/Program Files (x86)/Arm GNU Toolchain arm-none-eabi/14.3 rel1/arm-none-eabi/include/c++/14.3.1/bits\stl_iterator.h **** 
 511:C:/Program Files (x86)/Arm GNU Toolchain arm-none-eabi/14.3 rel1/arm-none-eabi/include/c++/14.3.1/bits\stl_iterator.h ****   template<typename _IteratorL, typename _IteratorR>
 512:C:/Program Files (x86)/Arm GNU Toolchain arm-none-eabi/14.3 rel1/arm-none-eabi/include/c++/14.3.1/bits\stl_iterator.h ****     inline _GLIBCXX17_CONSTEXPR bool
 513:C:/Program Files (x86)/Arm GNU Toolchain arm-none-eabi/14.3 rel1/arm-none-eabi/include/c++/14.3.1/bits\stl_iterator.h ****     operator<=(const reverse_iterator<_IteratorL>& __x,
 514:C:/Program Files (x86)/Arm GNU Toolchain arm-none-eabi/14.3 rel1/arm-none-eabi/include/c++/14.3.1/bits\stl_iterator.h **** 	       const reverse_iterator<_IteratorR>& __y)
 515:C:/Program Files (x86)/Arm GNU Toolchain arm-none-eabi/14.3 rel1/arm-none-eabi/include/c++/14.3.1/bits\stl_iterator.h ****     { return __x.base() >= __y.base(); }
 516:C:/Program Files (x86)/Arm GNU Toolchain arm-none-eabi/14.3 rel1/arm-none-eabi/include/c++/14.3.1/bits\stl_iterator.h **** 
 517:C:/Program Files (x86)/Arm GNU Toolchain arm-none-eabi/14.3 rel1/arm-none-eabi/include/c++/14.3.1/bits\stl_iterator.h ****   template<typename _IteratorL, typename _IteratorR>
 518:C:/Program Files (x86)/Arm GNU Toolchain arm-none-eabi/14.3 rel1/arm-none-eabi/include/c++/14.3.1/bits\stl_iterator.h ****     _GLIBCXX_NODISCARD
 519:C:/Program Files (x86)/Arm GNU Toolchain arm-none-eabi/14.3 rel1/arm-none-eabi/include/c++/14.3.1/bits\stl_iterator.h ****     inline _GLIBCXX17_CONSTEXPR bool
 520:C:/Program Files (x86)/Arm GNU Toolchain arm-none-eabi/14.3 rel1/arm-none-eabi/include/c++/14.3.1/bits\stl_iterator.h ****     operator>=(const reverse_iterator<_IteratorL>& __x,
 521:C:/Program Files (x86)/Arm GNU Toolchain arm-none-eabi/14.3 rel1/arm-none-eabi/include/c++/14.3.1/bits\stl_iterator.h **** 	       const reverse_iterator<_IteratorR>& __y)
 522:C:/Program Files (x86)/Arm GNU Toolchain arm-none-eabi/14.3 rel1/arm-none-eabi/include/c++/14.3.1/bits\stl_iterator.h ****     { return __x.base() <= __y.base(); }
 523:C:/Program Files (x86)/Arm GNU Toolchain arm-none-eabi/14.3 rel1/arm-none-eabi/include/c++/14.3.1/bits\stl_iterator.h **** #else // C++20
 524:C:/Program Files (x86)/Arm GNU Toolchain arm-none-eabi/14.3 rel1/arm-none-eabi/include/c++/14.3.1/bits\stl_iterator.h ****   template<typename _IteratorL, typename _IteratorR>
 525:C:/Program Files (x86)/Arm GNU Toolchain arm-none-eabi/14.3 rel1/arm-none-eabi/include/c++/14.3.1/bits\stl_iterator.h ****     [[nodiscard]]
 526:C:/Program Files (x86)/Arm GNU Toolchain arm-none-eabi/14.3 rel1/arm-none-eabi/include/c++/14.3.1/bits\stl_iterator.h ****     constexpr bool
 527:C:/Program Files (x86)/Arm GNU Toolchain arm-none-eabi/14.3 rel1/arm-none-eabi/include/c++/14.3.1/bits\stl_iterator.h ****     operator==(const reverse_iterator<_IteratorL>& __x,
 528:C:/Program Files (x86)/Arm GNU Toolchain arm-none-eabi/14.3 rel1/arm-none-eabi/include/c++/14.3.1/bits\stl_iterator.h **** 	       const reverse_iterator<_IteratorR>& __y)
 529:C:/Program Files (x86)/Arm GNU Toolchain arm-none-eabi/14.3 rel1/arm-none-eabi/include/c++/14.3.1/bits\stl_iterator.h ****     requires requires { { __x.base() == __y.base() } -> convertible_to<bool>; }
 530:C:/Program Files (x86)/Arm GNU Toolchain arm-none-eabi/14.3 rel1/arm-none-eabi/include/c++/14.3.1/bits\stl_iterator.h ****     { return __x.base() == __y.base(); }
 531:C:/Program Files (x86)/Arm GNU Toolchain arm-none-eabi/14.3 rel1/arm-none-eabi/include/c++/14.3.1/bits\stl_iterator.h **** 
 532:C:/Program Files (x86)/Arm GNU Toolchain arm-none-eabi/14.3 rel1/arm-none-eabi/include/c++/14.3.1/bits\stl_iterator.h ****   template<typename _IteratorL, typename _IteratorR>
 533:C:/Program Files (x86)/Arm GNU Toolchain arm-none-eabi/14.3 rel1/arm-none-eabi/include/c++/14.3.1/bits\stl_iterator.h ****     [[nodiscard]]
 534:C:/Program Files (x86)/Arm GNU Toolchain arm-none-eabi/14.3 rel1/arm-none-eabi/include/c++/14.3.1/bits\stl_iterator.h ****     constexpr bool
 535:C:/Program Files (x86)/Arm GNU Toolchain arm-none-eabi/14.3 rel1/arm-none-eabi/include/c++/14.3.1/bits\stl_iterator.h ****     operator!=(const reverse_iterator<_IteratorL>& __x,
 536:C:/Program Files (x86)/Arm GNU Toolchain arm-none-eabi/14.3 rel1/arm-none-eabi/include/c++/14.3.1/bits\stl_iterator.h **** 	       const reverse_iterator<_IteratorR>& __y)
 537:C:/Program Files (x86)/Arm GNU Toolchain arm-none-eabi/14.3 rel1/arm-none-eabi/include/c++/14.3.1/bits\stl_iterator.h ****     requires requires { { __x.base() != __y.base() } -> convertible_to<bool>; }
 538:C:/Program Files (x86)/Arm GNU Toolchain arm-none-eabi/14.3 rel1/arm-none-eabi/include/c++/14.3.1/bits\stl_iterator.h ****     { return __x.base() != __y.base(); }
 539:C:/Program Files (x86)/Arm GNU Toolchain arm-none-eabi/14.3 rel1/arm-none-eabi/include/c++/14.3.1/bits\stl_iterator.h **** 
 540:C:/Program Files (x86)/Arm GNU Toolchain arm-none-eabi/14.3 rel1/arm-none-eabi/include/c++/14.3.1/bits\stl_iterator.h ****   template<typename _IteratorL, typename _IteratorR>
 541:C:/Program Files (x86)/Arm GNU Toolchain arm-none-eabi/14.3 rel1/arm-none-eabi/include/c++/14.3.1/bits\stl_iterator.h ****     [[nodiscard]]
 542:C:/Program Files (x86)/Arm GNU Toolchain arm-none-eabi/14.3 rel1/arm-none-eabi/include/c++/14.3.1/bits\stl_iterator.h ****     constexpr bool
 543:C:/Program Files (x86)/Arm GNU Toolchain arm-none-eabi/14.3 rel1/arm-none-eabi/include/c++/14.3.1/bits\stl_iterator.h ****     operator<(const reverse_iterator<_IteratorL>& __x,
 544:C:/Program Files (x86)/Arm GNU Toolchain arm-none-eabi/14.3 rel1/arm-none-eabi/include/c++/14.3.1/bits\stl_iterator.h **** 	      const reverse_iterator<_IteratorR>& __y)
 545:C:/Program Files (x86)/Arm GNU Toolchain arm-none-eabi/14.3 rel1/arm-none-eabi/include/c++/14.3.1/bits\stl_iterator.h ****     requires requires { { __x.base() > __y.base() } -> convertible_to<bool>; }
 546:C:/Program Files (x86)/Arm GNU Toolchain arm-none-eabi/14.3 rel1/arm-none-eabi/include/c++/14.3.1/bits\stl_iterator.h ****     { return __x.base() > __y.base(); }
 547:C:/Program Files (x86)/Arm GNU Toolchain arm-none-eabi/14.3 rel1/arm-none-eabi/include/c++/14.3.1/bits\stl_iterator.h **** 
 548:C:/Program Files (x86)/Arm GNU Toolchain arm-none-eabi/14.3 rel1/arm-none-eabi/include/c++/14.3.1/bits\stl_iterator.h ****   template<typename _IteratorL, typename _IteratorR>
 549:C:/Program Files (x86)/Arm GNU Toolchain arm-none-eabi/14.3 rel1/arm-none-eabi/include/c++/14.3.1/bits\stl_iterator.h ****     [[nodiscard]]
 550:C:/Program Files (x86)/Arm GNU Toolchain arm-none-eabi/14.3 rel1/arm-none-eabi/include/c++/14.3.1/bits\stl_iterator.h ****     constexpr bool
 551:C:/Program Files (x86)/Arm GNU Toolchain arm-none-eabi/14.3 rel1/arm-none-eabi/include/c++/14.3.1/bits\stl_iterator.h ****     operator>(const reverse_iterator<_IteratorL>& __x,
 552:C:/Program Files (x86)/Arm GNU Toolchain arm-none-eabi/14.3 rel1/arm-none-eabi/include/c++/14.3.1/bits\stl_iterator.h **** 	      const reverse_iterator<_IteratorR>& __y)
 553:C:/Program Files (x86)/Arm GNU Toolchain arm-none-eabi/14.3 rel1/arm-none-eabi/include/c++/14.3.1/bits\stl_iterator.h ****     requires requires { { __x.base() < __y.base() } -> convertible_to<bool>; }
 554:C:/Program Files (x86)/Arm GNU Toolchain arm-none-eabi/14.3 rel1/arm-none-eabi/include/c++/14.3.1/bits\stl_iterator.h ****     { return __x.base() < __y.base(); }
 555:C:/Program Files (x86)/Arm GNU Toolchain arm-none-eabi/14.3 rel1/arm-none-eabi/include/c++/14.3.1/bits\stl_iterator.h **** 
 556:C:/Program Files (x86)/Arm GNU Toolchain arm-none-eabi/14.3 rel1/arm-none-eabi/include/c++/14.3.1/bits\stl_iterator.h ****   template<typename _IteratorL, typename _IteratorR>
 557:C:/Program Files (x86)/Arm GNU Toolchain arm-none-eabi/14.3 rel1/arm-none-eabi/include/c++/14.3.1/bits\stl_iterator.h ****     [[nodiscard]]
 558:C:/Program Files (x86)/Arm GNU Toolchain arm-none-eabi/14.3 rel1/arm-none-eabi/include/c++/14.3.1/bits\stl_iterator.h ****     constexpr bool
 559:C:/Program Files (x86)/Arm GNU Toolchain arm-none-eabi/14.3 rel1/arm-none-eabi/include/c++/14.3.1/bits\stl_iterator.h ****     operator<=(const reverse_iterator<_IteratorL>& __x,
 560:C:/Program Files (x86)/Arm GNU Toolchain arm-none-eabi/14.3 rel1/arm-none-eabi/include/c++/14.3.1/bits\stl_iterator.h **** 	       const reverse_iterator<_IteratorR>& __y)
 561:C:/Program Files (x86)/Arm GNU Toolchain arm-none-eabi/14.3 rel1/arm-none-eabi/include/c++/14.3.1/bits\stl_iterator.h ****     requires requires { { __x.base() >= __y.base() } -> convertible_to<bool>; }
 562:C:/Program Files (x86)/Arm GNU Toolchain arm-none-eabi/14.3 rel1/arm-none-eabi/include/c++/14.3.1/bits\stl_iterator.h ****     { return __x.base() >= __y.base(); }
 563:C:/Program Files (x86)/Arm GNU Toolchain arm-none-eabi/14.3 rel1/arm-none-eabi/include/c++/14.3.1/bits\stl_iterator.h **** 
 564:C:/Program Files (x86)/Arm GNU Toolchain arm-none-eabi/14.3 rel1/arm-none-eabi/include/c++/14.3.1/bits\stl_iterator.h ****   template<typename _IteratorL, typename _IteratorR>
 565:C:/Program Files (x86)/Arm GNU Toolchain arm-none-eabi/14.3 rel1/arm-none-eabi/include/c++/14.3.1/bits\stl_iterator.h ****     [[nodiscard]]
ARM GAS  C:\Users\Oliver\AppData\Local\Temp\ccdKDjJp.s 			page 42


 566:C:/Program Files (x86)/Arm GNU Toolchain arm-none-eabi/14.3 rel1/arm-none-eabi/include/c++/14.3.1/bits\stl_iterator.h ****     constexpr bool
 567:C:/Program Files (x86)/Arm GNU Toolchain arm-none-eabi/14.3 rel1/arm-none-eabi/include/c++/14.3.1/bits\stl_iterator.h ****     operator>=(const reverse_iterator<_IteratorL>& __x,
 568:C:/Program Files (x86)/Arm GNU Toolchain arm-none-eabi/14.3 rel1/arm-none-eabi/include/c++/14.3.1/bits\stl_iterator.h **** 	       const reverse_iterator<_IteratorR>& __y)
 569:C:/Program Files (x86)/Arm GNU Toolchain arm-none-eabi/14.3 rel1/arm-none-eabi/include/c++/14.3.1/bits\stl_iterator.h ****     requires requires { { __x.base() <= __y.base() } -> convertible_to<bool>; }
 570:C:/Program Files (x86)/Arm GNU Toolchain arm-none-eabi/14.3 rel1/arm-none-eabi/include/c++/14.3.1/bits\stl_iterator.h ****     { return __x.base() <= __y.base(); }
 571:C:/Program Files (x86)/Arm GNU Toolchain arm-none-eabi/14.3 rel1/arm-none-eabi/include/c++/14.3.1/bits\stl_iterator.h **** 
 572:C:/Program Files (x86)/Arm GNU Toolchain arm-none-eabi/14.3 rel1/arm-none-eabi/include/c++/14.3.1/bits\stl_iterator.h ****   template<typename _IteratorL,
 573:C:/Program Files (x86)/Arm GNU Toolchain arm-none-eabi/14.3 rel1/arm-none-eabi/include/c++/14.3.1/bits\stl_iterator.h **** 	   three_way_comparable_with<_IteratorL> _IteratorR>
 574:C:/Program Files (x86)/Arm GNU Toolchain arm-none-eabi/14.3 rel1/arm-none-eabi/include/c++/14.3.1/bits\stl_iterator.h ****     [[nodiscard]]
 575:C:/Program Files (x86)/Arm GNU Toolchain arm-none-eabi/14.3 rel1/arm-none-eabi/include/c++/14.3.1/bits\stl_iterator.h ****     constexpr compare_three_way_result_t<_IteratorL, _IteratorR>
 576:C:/Program Files (x86)/Arm GNU Toolchain arm-none-eabi/14.3 rel1/arm-none-eabi/include/c++/14.3.1/bits\stl_iterator.h ****     operator<=>(const reverse_iterator<_IteratorL>& __x,
 577:C:/Program Files (x86)/Arm GNU Toolchain arm-none-eabi/14.3 rel1/arm-none-eabi/include/c++/14.3.1/bits\stl_iterator.h **** 		const reverse_iterator<_IteratorR>& __y)
 578:C:/Program Files (x86)/Arm GNU Toolchain arm-none-eabi/14.3 rel1/arm-none-eabi/include/c++/14.3.1/bits\stl_iterator.h ****     { return __y.base() <=> __x.base(); }
 579:C:/Program Files (x86)/Arm GNU Toolchain arm-none-eabi/14.3 rel1/arm-none-eabi/include/c++/14.3.1/bits\stl_iterator.h **** 
 580:C:/Program Files (x86)/Arm GNU Toolchain arm-none-eabi/14.3 rel1/arm-none-eabi/include/c++/14.3.1/bits\stl_iterator.h ****   // Additional, non-standard overloads to avoid ambiguities with greedy,
 581:C:/Program Files (x86)/Arm GNU Toolchain arm-none-eabi/14.3 rel1/arm-none-eabi/include/c++/14.3.1/bits\stl_iterator.h ****   // unconstrained overloads in associated namespaces.
 582:C:/Program Files (x86)/Arm GNU Toolchain arm-none-eabi/14.3 rel1/arm-none-eabi/include/c++/14.3.1/bits\stl_iterator.h **** 
 583:C:/Program Files (x86)/Arm GNU Toolchain arm-none-eabi/14.3 rel1/arm-none-eabi/include/c++/14.3.1/bits\stl_iterator.h ****   template<typename _Iterator>
 584:C:/Program Files (x86)/Arm GNU Toolchain arm-none-eabi/14.3 rel1/arm-none-eabi/include/c++/14.3.1/bits\stl_iterator.h ****     [[nodiscard]]
 585:C:/Program Files (x86)/Arm GNU Toolchain arm-none-eabi/14.3 rel1/arm-none-eabi/include/c++/14.3.1/bits\stl_iterator.h ****     constexpr bool
 586:C:/Program Files (x86)/Arm GNU Toolchain arm-none-eabi/14.3 rel1/arm-none-eabi/include/c++/14.3.1/bits\stl_iterator.h ****     operator==(const reverse_iterator<_Iterator>& __x,
 587:C:/Program Files (x86)/Arm GNU Toolchain arm-none-eabi/14.3 rel1/arm-none-eabi/include/c++/14.3.1/bits\stl_iterator.h **** 	       const reverse_iterator<_Iterator>& __y)
 588:C:/Program Files (x86)/Arm GNU Toolchain arm-none-eabi/14.3 rel1/arm-none-eabi/include/c++/14.3.1/bits\stl_iterator.h ****     requires requires { { __x.base() == __y.base() } -> convertible_to<bool>; }
 589:C:/Program Files (x86)/Arm GNU Toolchain arm-none-eabi/14.3 rel1/arm-none-eabi/include/c++/14.3.1/bits\stl_iterator.h ****     { return __x.base() == __y.base(); }
 590:C:/Program Files (x86)/Arm GNU Toolchain arm-none-eabi/14.3 rel1/arm-none-eabi/include/c++/14.3.1/bits\stl_iterator.h **** 
 591:C:/Program Files (x86)/Arm GNU Toolchain arm-none-eabi/14.3 rel1/arm-none-eabi/include/c++/14.3.1/bits\stl_iterator.h ****   template<three_way_comparable _Iterator>
 592:C:/Program Files (x86)/Arm GNU Toolchain arm-none-eabi/14.3 rel1/arm-none-eabi/include/c++/14.3.1/bits\stl_iterator.h ****     [[nodiscard]]
 593:C:/Program Files (x86)/Arm GNU Toolchain arm-none-eabi/14.3 rel1/arm-none-eabi/include/c++/14.3.1/bits\stl_iterator.h ****     constexpr compare_three_way_result_t<_Iterator, _Iterator>
 594:C:/Program Files (x86)/Arm GNU Toolchain arm-none-eabi/14.3 rel1/arm-none-eabi/include/c++/14.3.1/bits\stl_iterator.h ****     operator<=>(const reverse_iterator<_Iterator>& __x,
 595:C:/Program Files (x86)/Arm GNU Toolchain arm-none-eabi/14.3 rel1/arm-none-eabi/include/c++/14.3.1/bits\stl_iterator.h **** 		const reverse_iterator<_Iterator>& __y)
 596:C:/Program Files (x86)/Arm GNU Toolchain arm-none-eabi/14.3 rel1/arm-none-eabi/include/c++/14.3.1/bits\stl_iterator.h ****     { return __y.base() <=> __x.base(); }
 597:C:/Program Files (x86)/Arm GNU Toolchain arm-none-eabi/14.3 rel1/arm-none-eabi/include/c++/14.3.1/bits\stl_iterator.h **** #endif // C++20
 598:C:/Program Files (x86)/Arm GNU Toolchain arm-none-eabi/14.3 rel1/arm-none-eabi/include/c++/14.3.1/bits\stl_iterator.h ****   ///@}
 599:C:/Program Files (x86)/Arm GNU Toolchain arm-none-eabi/14.3 rel1/arm-none-eabi/include/c++/14.3.1/bits\stl_iterator.h **** 
 600:C:/Program Files (x86)/Arm GNU Toolchain arm-none-eabi/14.3 rel1/arm-none-eabi/include/c++/14.3.1/bits\stl_iterator.h **** #if __cplusplus < 201103L
 601:C:/Program Files (x86)/Arm GNU Toolchain arm-none-eabi/14.3 rel1/arm-none-eabi/include/c++/14.3.1/bits\stl_iterator.h ****   template<typename _Iterator>
 602:C:/Program Files (x86)/Arm GNU Toolchain arm-none-eabi/14.3 rel1/arm-none-eabi/include/c++/14.3.1/bits\stl_iterator.h ****     inline typename reverse_iterator<_Iterator>::difference_type
 603:C:/Program Files (x86)/Arm GNU Toolchain arm-none-eabi/14.3 rel1/arm-none-eabi/include/c++/14.3.1/bits\stl_iterator.h ****     operator-(const reverse_iterator<_Iterator>& __x,
 604:C:/Program Files (x86)/Arm GNU Toolchain arm-none-eabi/14.3 rel1/arm-none-eabi/include/c++/14.3.1/bits\stl_iterator.h **** 	      const reverse_iterator<_Iterator>& __y)
 605:C:/Program Files (x86)/Arm GNU Toolchain arm-none-eabi/14.3 rel1/arm-none-eabi/include/c++/14.3.1/bits\stl_iterator.h ****     { return __y.base() - __x.base(); }
 606:C:/Program Files (x86)/Arm GNU Toolchain arm-none-eabi/14.3 rel1/arm-none-eabi/include/c++/14.3.1/bits\stl_iterator.h **** 
 607:C:/Program Files (x86)/Arm GNU Toolchain arm-none-eabi/14.3 rel1/arm-none-eabi/include/c++/14.3.1/bits\stl_iterator.h ****   template<typename _IteratorL, typename _IteratorR>
 608:C:/Program Files (x86)/Arm GNU Toolchain arm-none-eabi/14.3 rel1/arm-none-eabi/include/c++/14.3.1/bits\stl_iterator.h ****     inline typename reverse_iterator<_IteratorL>::difference_type
 609:C:/Program Files (x86)/Arm GNU Toolchain arm-none-eabi/14.3 rel1/arm-none-eabi/include/c++/14.3.1/bits\stl_iterator.h ****     operator-(const reverse_iterator<_IteratorL>& __x,
 610:C:/Program Files (x86)/Arm GNU Toolchain arm-none-eabi/14.3 rel1/arm-none-eabi/include/c++/14.3.1/bits\stl_iterator.h **** 	      const reverse_iterator<_IteratorR>& __y)
 611:C:/Program Files (x86)/Arm GNU Toolchain arm-none-eabi/14.3 rel1/arm-none-eabi/include/c++/14.3.1/bits\stl_iterator.h ****     { return __y.base() - __x.base(); }
 612:C:/Program Files (x86)/Arm GNU Toolchain arm-none-eabi/14.3 rel1/arm-none-eabi/include/c++/14.3.1/bits\stl_iterator.h **** #else
 613:C:/Program Files (x86)/Arm GNU Toolchain arm-none-eabi/14.3 rel1/arm-none-eabi/include/c++/14.3.1/bits\stl_iterator.h ****   // _GLIBCXX_RESOLVE_LIB_DEFECTS
 614:C:/Program Files (x86)/Arm GNU Toolchain arm-none-eabi/14.3 rel1/arm-none-eabi/include/c++/14.3.1/bits\stl_iterator.h ****   // DR 685. reverse_iterator/move_iterator difference has invalid signatures
 615:C:/Program Files (x86)/Arm GNU Toolchain arm-none-eabi/14.3 rel1/arm-none-eabi/include/c++/14.3.1/bits\stl_iterator.h ****   template<typename _IteratorL, typename _IteratorR>
 616:C:/Program Files (x86)/Arm GNU Toolchain arm-none-eabi/14.3 rel1/arm-none-eabi/include/c++/14.3.1/bits\stl_iterator.h ****     [[__nodiscard__]]
 617:C:/Program Files (x86)/Arm GNU Toolchain arm-none-eabi/14.3 rel1/arm-none-eabi/include/c++/14.3.1/bits\stl_iterator.h ****     inline _GLIBCXX17_CONSTEXPR auto
 618:C:/Program Files (x86)/Arm GNU Toolchain arm-none-eabi/14.3 rel1/arm-none-eabi/include/c++/14.3.1/bits\stl_iterator.h ****     operator-(const reverse_iterator<_IteratorL>& __x,
 619:C:/Program Files (x86)/Arm GNU Toolchain arm-none-eabi/14.3 rel1/arm-none-eabi/include/c++/14.3.1/bits\stl_iterator.h **** 	      const reverse_iterator<_IteratorR>& __y)
 620:C:/Program Files (x86)/Arm GNU Toolchain arm-none-eabi/14.3 rel1/arm-none-eabi/include/c++/14.3.1/bits\stl_iterator.h ****     -> decltype(__y.base() - __x.base())
 621:C:/Program Files (x86)/Arm GNU Toolchain arm-none-eabi/14.3 rel1/arm-none-eabi/include/c++/14.3.1/bits\stl_iterator.h ****     { return __y.base() - __x.base(); }
 622:C:/Program Files (x86)/Arm GNU Toolchain arm-none-eabi/14.3 rel1/arm-none-eabi/include/c++/14.3.1/bits\stl_iterator.h **** #endif
ARM GAS  C:\Users\Oliver\AppData\Local\Temp\ccdKDjJp.s 			page 43


 623:C:/Program Files (x86)/Arm GNU Toolchain arm-none-eabi/14.3 rel1/arm-none-eabi/include/c++/14.3.1/bits\stl_iterator.h **** 
 624:C:/Program Files (x86)/Arm GNU Toolchain arm-none-eabi/14.3 rel1/arm-none-eabi/include/c++/14.3.1/bits\stl_iterator.h ****   template<typename _Iterator>
 625:C:/Program Files (x86)/Arm GNU Toolchain arm-none-eabi/14.3 rel1/arm-none-eabi/include/c++/14.3.1/bits\stl_iterator.h ****     _GLIBCXX_NODISCARD
 626:C:/Program Files (x86)/Arm GNU Toolchain arm-none-eabi/14.3 rel1/arm-none-eabi/include/c++/14.3.1/bits\stl_iterator.h ****     inline _GLIBCXX17_CONSTEXPR reverse_iterator<_Iterator>
 627:C:/Program Files (x86)/Arm GNU Toolchain arm-none-eabi/14.3 rel1/arm-none-eabi/include/c++/14.3.1/bits\stl_iterator.h ****     operator+(typename reverse_iterator<_Iterator>::difference_type __n,
 628:C:/Program Files (x86)/Arm GNU Toolchain arm-none-eabi/14.3 rel1/arm-none-eabi/include/c++/14.3.1/bits\stl_iterator.h **** 	      const reverse_iterator<_Iterator>& __x)
 629:C:/Program Files (x86)/Arm GNU Toolchain arm-none-eabi/14.3 rel1/arm-none-eabi/include/c++/14.3.1/bits\stl_iterator.h ****     { return reverse_iterator<_Iterator>(__x.base() - __n); }
 630:C:/Program Files (x86)/Arm GNU Toolchain arm-none-eabi/14.3 rel1/arm-none-eabi/include/c++/14.3.1/bits\stl_iterator.h **** 
 631:C:/Program Files (x86)/Arm GNU Toolchain arm-none-eabi/14.3 rel1/arm-none-eabi/include/c++/14.3.1/bits\stl_iterator.h **** #if __cplusplus >= 201103L
 632:C:/Program Files (x86)/Arm GNU Toolchain arm-none-eabi/14.3 rel1/arm-none-eabi/include/c++/14.3.1/bits\stl_iterator.h ****   // Same as C++14 make_reverse_iterator but used in C++11 mode too.
 633:C:/Program Files (x86)/Arm GNU Toolchain arm-none-eabi/14.3 rel1/arm-none-eabi/include/c++/14.3.1/bits\stl_iterator.h ****   template<typename _Iterator>
 634:C:/Program Files (x86)/Arm GNU Toolchain arm-none-eabi/14.3 rel1/arm-none-eabi/include/c++/14.3.1/bits\stl_iterator.h ****     inline _GLIBCXX17_CONSTEXPR reverse_iterator<_Iterator>
 635:C:/Program Files (x86)/Arm GNU Toolchain arm-none-eabi/14.3 rel1/arm-none-eabi/include/c++/14.3.1/bits\stl_iterator.h ****     __make_reverse_iterator(_Iterator __i)
 636:C:/Program Files (x86)/Arm GNU Toolchain arm-none-eabi/14.3 rel1/arm-none-eabi/include/c++/14.3.1/bits\stl_iterator.h ****     { return reverse_iterator<_Iterator>(__i); }
 637:C:/Program Files (x86)/Arm GNU Toolchain arm-none-eabi/14.3 rel1/arm-none-eabi/include/c++/14.3.1/bits\stl_iterator.h **** 
 638:C:/Program Files (x86)/Arm GNU Toolchain arm-none-eabi/14.3 rel1/arm-none-eabi/include/c++/14.3.1/bits\stl_iterator.h **** # ifdef __glibcxx_make_reverse_iterator // C++ >= 14
 639:C:/Program Files (x86)/Arm GNU Toolchain arm-none-eabi/14.3 rel1/arm-none-eabi/include/c++/14.3.1/bits\stl_iterator.h ****   // _GLIBCXX_RESOLVE_LIB_DEFECTS
 640:C:/Program Files (x86)/Arm GNU Toolchain arm-none-eabi/14.3 rel1/arm-none-eabi/include/c++/14.3.1/bits\stl_iterator.h ****   // DR 2285. make_reverse_iterator
